ARM GAS  /tmp/ccWA14hl.s 			page 1


   1              		.cpu cortex-m4
   2              		.arch armv7e-m
   3              		.fpu fpv4-sp-d16
   4              		.eabi_attribute 27, 1
   5              		.eabi_attribute 28, 1
   6              		.eabi_attribute 20, 1
   7              		.eabi_attribute 21, 1
   8              		.eabi_attribute 23, 3
   9              		.eabi_attribute 24, 1
  10              		.eabi_attribute 25, 1
  11              		.eabi_attribute 26, 1
  12              		.eabi_attribute 30, 1
  13              		.eabi_attribute 34, 1
  14              		.eabi_attribute 18, 4
  15              		.file	"stm32f4xx_hal_dma_ex.c"
  16              		.text
  17              	.Ltext0:
  18              		.cfi_sections	.debug_frame
  19              		.file 1 "Drivers/STM32F4xx_HAL_Driver/Src/stm32f4xx_hal_dma_ex.c"
  20              		.section	.text.DMA_MultiBufferSetConfig,"ax",%progbits
  21              		.align	1
  22              		.syntax unified
  23              		.thumb
  24              		.thumb_func
  26              	DMA_MultiBufferSetConfig:
  27              	.LVL0:
  28              	.LFB137:
   1:Drivers/STM32F4xx_HAL_Driver/Src/stm32f4xx_hal_dma_ex.c **** /**
   2:Drivers/STM32F4xx_HAL_Driver/Src/stm32f4xx_hal_dma_ex.c ****   ******************************************************************************
   3:Drivers/STM32F4xx_HAL_Driver/Src/stm32f4xx_hal_dma_ex.c ****   * @file    stm32f4xx_hal_dma_ex.c
   4:Drivers/STM32F4xx_HAL_Driver/Src/stm32f4xx_hal_dma_ex.c ****   * @author  MCD Application Team
   5:Drivers/STM32F4xx_HAL_Driver/Src/stm32f4xx_hal_dma_ex.c ****   * @brief   DMA Extension HAL module driver
   6:Drivers/STM32F4xx_HAL_Driver/Src/stm32f4xx_hal_dma_ex.c ****   *         This file provides firmware functions to manage the following 
   7:Drivers/STM32F4xx_HAL_Driver/Src/stm32f4xx_hal_dma_ex.c ****   *         functionalities of the DMA Extension peripheral:
   8:Drivers/STM32F4xx_HAL_Driver/Src/stm32f4xx_hal_dma_ex.c ****   *           + Extended features functions
   9:Drivers/STM32F4xx_HAL_Driver/Src/stm32f4xx_hal_dma_ex.c ****   *
  10:Drivers/STM32F4xx_HAL_Driver/Src/stm32f4xx_hal_dma_ex.c ****   @verbatim
  11:Drivers/STM32F4xx_HAL_Driver/Src/stm32f4xx_hal_dma_ex.c ****   ==============================================================================
  12:Drivers/STM32F4xx_HAL_Driver/Src/stm32f4xx_hal_dma_ex.c ****                         ##### How to use this driver #####
  13:Drivers/STM32F4xx_HAL_Driver/Src/stm32f4xx_hal_dma_ex.c ****   ==============================================================================
  14:Drivers/STM32F4xx_HAL_Driver/Src/stm32f4xx_hal_dma_ex.c ****   [..]
  15:Drivers/STM32F4xx_HAL_Driver/Src/stm32f4xx_hal_dma_ex.c ****   The DMA Extension HAL driver can be used as follows:
  16:Drivers/STM32F4xx_HAL_Driver/Src/stm32f4xx_hal_dma_ex.c ****    (#) Start a multi buffer transfer using the HAL_DMA_MultiBufferStart() function
  17:Drivers/STM32F4xx_HAL_Driver/Src/stm32f4xx_hal_dma_ex.c ****        for polling mode or HAL_DMA_MultiBufferStart_IT() for interrupt mode.
  18:Drivers/STM32F4xx_HAL_Driver/Src/stm32f4xx_hal_dma_ex.c ****                    
  19:Drivers/STM32F4xx_HAL_Driver/Src/stm32f4xx_hal_dma_ex.c ****      -@-  In Memory-to-Memory transfer mode, Multi (Double) Buffer mode is not allowed.
  20:Drivers/STM32F4xx_HAL_Driver/Src/stm32f4xx_hal_dma_ex.c ****      -@-  When Multi (Double) Buffer mode is enabled the, transfer is circular by default.
  21:Drivers/STM32F4xx_HAL_Driver/Src/stm32f4xx_hal_dma_ex.c ****      -@-  In Multi (Double) buffer mode, it is possible to update the base address for 
  22:Drivers/STM32F4xx_HAL_Driver/Src/stm32f4xx_hal_dma_ex.c ****           the AHB memory port on the fly (DMA_SxM0AR or DMA_SxM1AR) when the stream is enabled. 
  23:Drivers/STM32F4xx_HAL_Driver/Src/stm32f4xx_hal_dma_ex.c ****   
  24:Drivers/STM32F4xx_HAL_Driver/Src/stm32f4xx_hal_dma_ex.c ****   @endverbatim
  25:Drivers/STM32F4xx_HAL_Driver/Src/stm32f4xx_hal_dma_ex.c ****   ******************************************************************************
  26:Drivers/STM32F4xx_HAL_Driver/Src/stm32f4xx_hal_dma_ex.c ****   * @attention
  27:Drivers/STM32F4xx_HAL_Driver/Src/stm32f4xx_hal_dma_ex.c ****   *
  28:Drivers/STM32F4xx_HAL_Driver/Src/stm32f4xx_hal_dma_ex.c ****   * Copyright (c) 2017 STMicroelectronics.
  29:Drivers/STM32F4xx_HAL_Driver/Src/stm32f4xx_hal_dma_ex.c ****   * All rights reserved.
  30:Drivers/STM32F4xx_HAL_Driver/Src/stm32f4xx_hal_dma_ex.c ****   *
ARM GAS  /tmp/ccWA14hl.s 			page 2


  31:Drivers/STM32F4xx_HAL_Driver/Src/stm32f4xx_hal_dma_ex.c ****   * This software is licensed under terms that can be found in the LICENSE file in
  32:Drivers/STM32F4xx_HAL_Driver/Src/stm32f4xx_hal_dma_ex.c ****   * the root directory of this software component.
  33:Drivers/STM32F4xx_HAL_Driver/Src/stm32f4xx_hal_dma_ex.c ****   * If no LICENSE file comes with this software, it is provided AS-IS.
  34:Drivers/STM32F4xx_HAL_Driver/Src/stm32f4xx_hal_dma_ex.c ****   *
  35:Drivers/STM32F4xx_HAL_Driver/Src/stm32f4xx_hal_dma_ex.c ****   ******************************************************************************
  36:Drivers/STM32F4xx_HAL_Driver/Src/stm32f4xx_hal_dma_ex.c ****   */
  37:Drivers/STM32F4xx_HAL_Driver/Src/stm32f4xx_hal_dma_ex.c **** 
  38:Drivers/STM32F4xx_HAL_Driver/Src/stm32f4xx_hal_dma_ex.c **** /* Includes ------------------------------------------------------------------*/
  39:Drivers/STM32F4xx_HAL_Driver/Src/stm32f4xx_hal_dma_ex.c **** #include "stm32f4xx_hal.h"
  40:Drivers/STM32F4xx_HAL_Driver/Src/stm32f4xx_hal_dma_ex.c **** 
  41:Drivers/STM32F4xx_HAL_Driver/Src/stm32f4xx_hal_dma_ex.c **** /** @addtogroup STM32F4xx_HAL_Driver
  42:Drivers/STM32F4xx_HAL_Driver/Src/stm32f4xx_hal_dma_ex.c ****   * @{
  43:Drivers/STM32F4xx_HAL_Driver/Src/stm32f4xx_hal_dma_ex.c ****   */
  44:Drivers/STM32F4xx_HAL_Driver/Src/stm32f4xx_hal_dma_ex.c **** 
  45:Drivers/STM32F4xx_HAL_Driver/Src/stm32f4xx_hal_dma_ex.c **** /** @defgroup DMAEx DMAEx
  46:Drivers/STM32F4xx_HAL_Driver/Src/stm32f4xx_hal_dma_ex.c ****   * @brief DMA Extended HAL module driver
  47:Drivers/STM32F4xx_HAL_Driver/Src/stm32f4xx_hal_dma_ex.c ****   * @{
  48:Drivers/STM32F4xx_HAL_Driver/Src/stm32f4xx_hal_dma_ex.c ****   */
  49:Drivers/STM32F4xx_HAL_Driver/Src/stm32f4xx_hal_dma_ex.c **** 
  50:Drivers/STM32F4xx_HAL_Driver/Src/stm32f4xx_hal_dma_ex.c **** #ifdef HAL_DMA_MODULE_ENABLED
  51:Drivers/STM32F4xx_HAL_Driver/Src/stm32f4xx_hal_dma_ex.c **** 
  52:Drivers/STM32F4xx_HAL_Driver/Src/stm32f4xx_hal_dma_ex.c **** /* Private types -------------------------------------------------------------*/
  53:Drivers/STM32F4xx_HAL_Driver/Src/stm32f4xx_hal_dma_ex.c **** /* Private variables ---------------------------------------------------------*/
  54:Drivers/STM32F4xx_HAL_Driver/Src/stm32f4xx_hal_dma_ex.c **** /* Private Constants ---------------------------------------------------------*/
  55:Drivers/STM32F4xx_HAL_Driver/Src/stm32f4xx_hal_dma_ex.c **** /* Private macros ------------------------------------------------------------*/
  56:Drivers/STM32F4xx_HAL_Driver/Src/stm32f4xx_hal_dma_ex.c **** /* Private functions ---------------------------------------------------------*/
  57:Drivers/STM32F4xx_HAL_Driver/Src/stm32f4xx_hal_dma_ex.c **** /** @addtogroup DMAEx_Private_Functions
  58:Drivers/STM32F4xx_HAL_Driver/Src/stm32f4xx_hal_dma_ex.c ****   * @{
  59:Drivers/STM32F4xx_HAL_Driver/Src/stm32f4xx_hal_dma_ex.c ****   */
  60:Drivers/STM32F4xx_HAL_Driver/Src/stm32f4xx_hal_dma_ex.c **** static void DMA_MultiBufferSetConfig(DMA_HandleTypeDef *hdma, uint32_t SrcAddress, uint32_t DstAddr
  61:Drivers/STM32F4xx_HAL_Driver/Src/stm32f4xx_hal_dma_ex.c **** /**
  62:Drivers/STM32F4xx_HAL_Driver/Src/stm32f4xx_hal_dma_ex.c ****   * @}
  63:Drivers/STM32F4xx_HAL_Driver/Src/stm32f4xx_hal_dma_ex.c ****   */
  64:Drivers/STM32F4xx_HAL_Driver/Src/stm32f4xx_hal_dma_ex.c **** 
  65:Drivers/STM32F4xx_HAL_Driver/Src/stm32f4xx_hal_dma_ex.c **** /* Exported functions ---------------------------------------------------------*/
  66:Drivers/STM32F4xx_HAL_Driver/Src/stm32f4xx_hal_dma_ex.c **** 
  67:Drivers/STM32F4xx_HAL_Driver/Src/stm32f4xx_hal_dma_ex.c **** /** @addtogroup DMAEx_Exported_Functions
  68:Drivers/STM32F4xx_HAL_Driver/Src/stm32f4xx_hal_dma_ex.c ****   * @{
  69:Drivers/STM32F4xx_HAL_Driver/Src/stm32f4xx_hal_dma_ex.c ****   */
  70:Drivers/STM32F4xx_HAL_Driver/Src/stm32f4xx_hal_dma_ex.c **** 
  71:Drivers/STM32F4xx_HAL_Driver/Src/stm32f4xx_hal_dma_ex.c **** 
  72:Drivers/STM32F4xx_HAL_Driver/Src/stm32f4xx_hal_dma_ex.c **** /** @addtogroup DMAEx_Exported_Functions_Group1
  73:Drivers/STM32F4xx_HAL_Driver/Src/stm32f4xx_hal_dma_ex.c ****   *
  74:Drivers/STM32F4xx_HAL_Driver/Src/stm32f4xx_hal_dma_ex.c **** @verbatim   
  75:Drivers/STM32F4xx_HAL_Driver/Src/stm32f4xx_hal_dma_ex.c ****  ===============================================================================
  76:Drivers/STM32F4xx_HAL_Driver/Src/stm32f4xx_hal_dma_ex.c ****                 #####  Extended features functions  #####
  77:Drivers/STM32F4xx_HAL_Driver/Src/stm32f4xx_hal_dma_ex.c ****  ===============================================================================  
  78:Drivers/STM32F4xx_HAL_Driver/Src/stm32f4xx_hal_dma_ex.c ****     [..]  This section provides functions allowing to:
  79:Drivers/STM32F4xx_HAL_Driver/Src/stm32f4xx_hal_dma_ex.c ****       (+) Configure the source, destination address and data length and 
  80:Drivers/STM32F4xx_HAL_Driver/Src/stm32f4xx_hal_dma_ex.c ****           Start MultiBuffer DMA transfer
  81:Drivers/STM32F4xx_HAL_Driver/Src/stm32f4xx_hal_dma_ex.c ****       (+) Configure the source, destination address and data length and 
  82:Drivers/STM32F4xx_HAL_Driver/Src/stm32f4xx_hal_dma_ex.c ****           Start MultiBuffer DMA transfer with interrupt
  83:Drivers/STM32F4xx_HAL_Driver/Src/stm32f4xx_hal_dma_ex.c ****       (+) Change on the fly the memory0 or memory1 address.
  84:Drivers/STM32F4xx_HAL_Driver/Src/stm32f4xx_hal_dma_ex.c ****       
  85:Drivers/STM32F4xx_HAL_Driver/Src/stm32f4xx_hal_dma_ex.c **** @endverbatim
  86:Drivers/STM32F4xx_HAL_Driver/Src/stm32f4xx_hal_dma_ex.c ****   * @{
  87:Drivers/STM32F4xx_HAL_Driver/Src/stm32f4xx_hal_dma_ex.c ****   */
ARM GAS  /tmp/ccWA14hl.s 			page 3


  88:Drivers/STM32F4xx_HAL_Driver/Src/stm32f4xx_hal_dma_ex.c **** 
  89:Drivers/STM32F4xx_HAL_Driver/Src/stm32f4xx_hal_dma_ex.c **** 
  90:Drivers/STM32F4xx_HAL_Driver/Src/stm32f4xx_hal_dma_ex.c **** /**
  91:Drivers/STM32F4xx_HAL_Driver/Src/stm32f4xx_hal_dma_ex.c ****   * @brief  Starts the multi_buffer DMA Transfer.
  92:Drivers/STM32F4xx_HAL_Driver/Src/stm32f4xx_hal_dma_ex.c ****   * @param  hdma       pointer to a DMA_HandleTypeDef structure that contains
  93:Drivers/STM32F4xx_HAL_Driver/Src/stm32f4xx_hal_dma_ex.c ****   *                     the configuration information for the specified DMA Stream.  
  94:Drivers/STM32F4xx_HAL_Driver/Src/stm32f4xx_hal_dma_ex.c ****   * @param  SrcAddress The source memory Buffer address
  95:Drivers/STM32F4xx_HAL_Driver/Src/stm32f4xx_hal_dma_ex.c ****   * @param  DstAddress The destination memory Buffer address
  96:Drivers/STM32F4xx_HAL_Driver/Src/stm32f4xx_hal_dma_ex.c ****   * @param  SecondMemAddress The second memory Buffer address in case of multi buffer Transfer  
  97:Drivers/STM32F4xx_HAL_Driver/Src/stm32f4xx_hal_dma_ex.c ****   * @param  DataLength The length of data to be transferred from source to destination
  98:Drivers/STM32F4xx_HAL_Driver/Src/stm32f4xx_hal_dma_ex.c ****   * @retval HAL status
  99:Drivers/STM32F4xx_HAL_Driver/Src/stm32f4xx_hal_dma_ex.c ****   */
 100:Drivers/STM32F4xx_HAL_Driver/Src/stm32f4xx_hal_dma_ex.c **** HAL_StatusTypeDef HAL_DMAEx_MultiBufferStart(DMA_HandleTypeDef *hdma, uint32_t SrcAddress, uint32_t
 101:Drivers/STM32F4xx_HAL_Driver/Src/stm32f4xx_hal_dma_ex.c **** {
 102:Drivers/STM32F4xx_HAL_Driver/Src/stm32f4xx_hal_dma_ex.c ****   HAL_StatusTypeDef status = HAL_OK;
 103:Drivers/STM32F4xx_HAL_Driver/Src/stm32f4xx_hal_dma_ex.c ****   
 104:Drivers/STM32F4xx_HAL_Driver/Src/stm32f4xx_hal_dma_ex.c ****   /* Check the parameters */
 105:Drivers/STM32F4xx_HAL_Driver/Src/stm32f4xx_hal_dma_ex.c ****   assert_param(IS_DMA_BUFFER_SIZE(DataLength));
 106:Drivers/STM32F4xx_HAL_Driver/Src/stm32f4xx_hal_dma_ex.c ****   
 107:Drivers/STM32F4xx_HAL_Driver/Src/stm32f4xx_hal_dma_ex.c ****   /* Memory-to-memory transfer not supported in double buffering mode */
 108:Drivers/STM32F4xx_HAL_Driver/Src/stm32f4xx_hal_dma_ex.c ****   if (hdma->Init.Direction == DMA_MEMORY_TO_MEMORY)
 109:Drivers/STM32F4xx_HAL_Driver/Src/stm32f4xx_hal_dma_ex.c ****   {
 110:Drivers/STM32F4xx_HAL_Driver/Src/stm32f4xx_hal_dma_ex.c ****     hdma->ErrorCode = HAL_DMA_ERROR_NOT_SUPPORTED;
 111:Drivers/STM32F4xx_HAL_Driver/Src/stm32f4xx_hal_dma_ex.c ****     status = HAL_ERROR;
 112:Drivers/STM32F4xx_HAL_Driver/Src/stm32f4xx_hal_dma_ex.c ****   }
 113:Drivers/STM32F4xx_HAL_Driver/Src/stm32f4xx_hal_dma_ex.c ****   else
 114:Drivers/STM32F4xx_HAL_Driver/Src/stm32f4xx_hal_dma_ex.c ****   {
 115:Drivers/STM32F4xx_HAL_Driver/Src/stm32f4xx_hal_dma_ex.c ****     /* Process Locked */
 116:Drivers/STM32F4xx_HAL_Driver/Src/stm32f4xx_hal_dma_ex.c ****     __HAL_LOCK(hdma);
 117:Drivers/STM32F4xx_HAL_Driver/Src/stm32f4xx_hal_dma_ex.c ****     
 118:Drivers/STM32F4xx_HAL_Driver/Src/stm32f4xx_hal_dma_ex.c ****     if(HAL_DMA_STATE_READY == hdma->State)
 119:Drivers/STM32F4xx_HAL_Driver/Src/stm32f4xx_hal_dma_ex.c ****     {
 120:Drivers/STM32F4xx_HAL_Driver/Src/stm32f4xx_hal_dma_ex.c ****       /* Change DMA peripheral state */
 121:Drivers/STM32F4xx_HAL_Driver/Src/stm32f4xx_hal_dma_ex.c ****       hdma->State = HAL_DMA_STATE_BUSY; 
 122:Drivers/STM32F4xx_HAL_Driver/Src/stm32f4xx_hal_dma_ex.c ****       
 123:Drivers/STM32F4xx_HAL_Driver/Src/stm32f4xx_hal_dma_ex.c ****       /* Enable the double buffer mode */
 124:Drivers/STM32F4xx_HAL_Driver/Src/stm32f4xx_hal_dma_ex.c ****       hdma->Instance->CR |= (uint32_t)DMA_SxCR_DBM;
 125:Drivers/STM32F4xx_HAL_Driver/Src/stm32f4xx_hal_dma_ex.c ****       
 126:Drivers/STM32F4xx_HAL_Driver/Src/stm32f4xx_hal_dma_ex.c ****       /* Configure DMA Stream destination address */
 127:Drivers/STM32F4xx_HAL_Driver/Src/stm32f4xx_hal_dma_ex.c ****       hdma->Instance->M1AR = SecondMemAddress;
 128:Drivers/STM32F4xx_HAL_Driver/Src/stm32f4xx_hal_dma_ex.c ****       
 129:Drivers/STM32F4xx_HAL_Driver/Src/stm32f4xx_hal_dma_ex.c ****       /* Configure the source, destination address and the data length */
 130:Drivers/STM32F4xx_HAL_Driver/Src/stm32f4xx_hal_dma_ex.c ****       DMA_MultiBufferSetConfig(hdma, SrcAddress, DstAddress, DataLength);
 131:Drivers/STM32F4xx_HAL_Driver/Src/stm32f4xx_hal_dma_ex.c ****       
 132:Drivers/STM32F4xx_HAL_Driver/Src/stm32f4xx_hal_dma_ex.c ****       /* Enable the peripheral */
 133:Drivers/STM32F4xx_HAL_Driver/Src/stm32f4xx_hal_dma_ex.c ****       __HAL_DMA_ENABLE(hdma);
 134:Drivers/STM32F4xx_HAL_Driver/Src/stm32f4xx_hal_dma_ex.c ****     }
 135:Drivers/STM32F4xx_HAL_Driver/Src/stm32f4xx_hal_dma_ex.c ****     else
 136:Drivers/STM32F4xx_HAL_Driver/Src/stm32f4xx_hal_dma_ex.c ****     {
 137:Drivers/STM32F4xx_HAL_Driver/Src/stm32f4xx_hal_dma_ex.c ****       /* Return error status */
 138:Drivers/STM32F4xx_HAL_Driver/Src/stm32f4xx_hal_dma_ex.c ****       status = HAL_BUSY;
 139:Drivers/STM32F4xx_HAL_Driver/Src/stm32f4xx_hal_dma_ex.c ****     }
 140:Drivers/STM32F4xx_HAL_Driver/Src/stm32f4xx_hal_dma_ex.c ****   }
 141:Drivers/STM32F4xx_HAL_Driver/Src/stm32f4xx_hal_dma_ex.c ****   return status;
 142:Drivers/STM32F4xx_HAL_Driver/Src/stm32f4xx_hal_dma_ex.c **** }
 143:Drivers/STM32F4xx_HAL_Driver/Src/stm32f4xx_hal_dma_ex.c **** 
 144:Drivers/STM32F4xx_HAL_Driver/Src/stm32f4xx_hal_dma_ex.c **** /**
ARM GAS  /tmp/ccWA14hl.s 			page 4


 145:Drivers/STM32F4xx_HAL_Driver/Src/stm32f4xx_hal_dma_ex.c ****   * @brief  Starts the multi_buffer DMA Transfer with interrupt enabled.
 146:Drivers/STM32F4xx_HAL_Driver/Src/stm32f4xx_hal_dma_ex.c ****   * @param  hdma       pointer to a DMA_HandleTypeDef structure that contains
 147:Drivers/STM32F4xx_HAL_Driver/Src/stm32f4xx_hal_dma_ex.c ****   *                     the configuration information for the specified DMA Stream.  
 148:Drivers/STM32F4xx_HAL_Driver/Src/stm32f4xx_hal_dma_ex.c ****   * @param  SrcAddress The source memory Buffer address
 149:Drivers/STM32F4xx_HAL_Driver/Src/stm32f4xx_hal_dma_ex.c ****   * @param  DstAddress The destination memory Buffer address
 150:Drivers/STM32F4xx_HAL_Driver/Src/stm32f4xx_hal_dma_ex.c ****   * @param  SecondMemAddress The second memory Buffer address in case of multi buffer Transfer  
 151:Drivers/STM32F4xx_HAL_Driver/Src/stm32f4xx_hal_dma_ex.c ****   * @param  DataLength The length of data to be transferred from source to destination
 152:Drivers/STM32F4xx_HAL_Driver/Src/stm32f4xx_hal_dma_ex.c ****   * @retval HAL status
 153:Drivers/STM32F4xx_HAL_Driver/Src/stm32f4xx_hal_dma_ex.c ****   */
 154:Drivers/STM32F4xx_HAL_Driver/Src/stm32f4xx_hal_dma_ex.c **** HAL_StatusTypeDef HAL_DMAEx_MultiBufferStart_IT(DMA_HandleTypeDef *hdma, uint32_t SrcAddress, uint3
 155:Drivers/STM32F4xx_HAL_Driver/Src/stm32f4xx_hal_dma_ex.c **** {
 156:Drivers/STM32F4xx_HAL_Driver/Src/stm32f4xx_hal_dma_ex.c ****   HAL_StatusTypeDef status = HAL_OK;
 157:Drivers/STM32F4xx_HAL_Driver/Src/stm32f4xx_hal_dma_ex.c ****   
 158:Drivers/STM32F4xx_HAL_Driver/Src/stm32f4xx_hal_dma_ex.c ****   /* Check the parameters */
 159:Drivers/STM32F4xx_HAL_Driver/Src/stm32f4xx_hal_dma_ex.c ****   assert_param(IS_DMA_BUFFER_SIZE(DataLength));
 160:Drivers/STM32F4xx_HAL_Driver/Src/stm32f4xx_hal_dma_ex.c ****   
 161:Drivers/STM32F4xx_HAL_Driver/Src/stm32f4xx_hal_dma_ex.c ****   /* Memory-to-memory transfer not supported in double buffering mode */
 162:Drivers/STM32F4xx_HAL_Driver/Src/stm32f4xx_hal_dma_ex.c ****   if (hdma->Init.Direction == DMA_MEMORY_TO_MEMORY)
 163:Drivers/STM32F4xx_HAL_Driver/Src/stm32f4xx_hal_dma_ex.c ****   {
 164:Drivers/STM32F4xx_HAL_Driver/Src/stm32f4xx_hal_dma_ex.c ****     hdma->ErrorCode = HAL_DMA_ERROR_NOT_SUPPORTED;
 165:Drivers/STM32F4xx_HAL_Driver/Src/stm32f4xx_hal_dma_ex.c ****     return HAL_ERROR;
 166:Drivers/STM32F4xx_HAL_Driver/Src/stm32f4xx_hal_dma_ex.c ****   }
 167:Drivers/STM32F4xx_HAL_Driver/Src/stm32f4xx_hal_dma_ex.c ****   
 168:Drivers/STM32F4xx_HAL_Driver/Src/stm32f4xx_hal_dma_ex.c ****   /* Check callback functions */
 169:Drivers/STM32F4xx_HAL_Driver/Src/stm32f4xx_hal_dma_ex.c ****   if ((NULL == hdma->XferCpltCallback) || (NULL == hdma->XferM1CpltCallback) || (NULL == hdma->Xfer
 170:Drivers/STM32F4xx_HAL_Driver/Src/stm32f4xx_hal_dma_ex.c ****   {
 171:Drivers/STM32F4xx_HAL_Driver/Src/stm32f4xx_hal_dma_ex.c ****     hdma->ErrorCode = HAL_DMA_ERROR_PARAM;
 172:Drivers/STM32F4xx_HAL_Driver/Src/stm32f4xx_hal_dma_ex.c ****     return HAL_ERROR;
 173:Drivers/STM32F4xx_HAL_Driver/Src/stm32f4xx_hal_dma_ex.c ****   }
 174:Drivers/STM32F4xx_HAL_Driver/Src/stm32f4xx_hal_dma_ex.c ****   
 175:Drivers/STM32F4xx_HAL_Driver/Src/stm32f4xx_hal_dma_ex.c ****   /* Process locked */
 176:Drivers/STM32F4xx_HAL_Driver/Src/stm32f4xx_hal_dma_ex.c ****   __HAL_LOCK(hdma);
 177:Drivers/STM32F4xx_HAL_Driver/Src/stm32f4xx_hal_dma_ex.c ****   
 178:Drivers/STM32F4xx_HAL_Driver/Src/stm32f4xx_hal_dma_ex.c ****   if(HAL_DMA_STATE_READY == hdma->State)
 179:Drivers/STM32F4xx_HAL_Driver/Src/stm32f4xx_hal_dma_ex.c ****   {
 180:Drivers/STM32F4xx_HAL_Driver/Src/stm32f4xx_hal_dma_ex.c ****     /* Change DMA peripheral state */
 181:Drivers/STM32F4xx_HAL_Driver/Src/stm32f4xx_hal_dma_ex.c ****     hdma->State = HAL_DMA_STATE_BUSY;
 182:Drivers/STM32F4xx_HAL_Driver/Src/stm32f4xx_hal_dma_ex.c ****     
 183:Drivers/STM32F4xx_HAL_Driver/Src/stm32f4xx_hal_dma_ex.c ****     /* Initialize the error code */
 184:Drivers/STM32F4xx_HAL_Driver/Src/stm32f4xx_hal_dma_ex.c ****     hdma->ErrorCode = HAL_DMA_ERROR_NONE;
 185:Drivers/STM32F4xx_HAL_Driver/Src/stm32f4xx_hal_dma_ex.c ****     
 186:Drivers/STM32F4xx_HAL_Driver/Src/stm32f4xx_hal_dma_ex.c ****     /* Enable the Double buffer mode */
 187:Drivers/STM32F4xx_HAL_Driver/Src/stm32f4xx_hal_dma_ex.c ****     hdma->Instance->CR |= (uint32_t)DMA_SxCR_DBM;
 188:Drivers/STM32F4xx_HAL_Driver/Src/stm32f4xx_hal_dma_ex.c ****     
 189:Drivers/STM32F4xx_HAL_Driver/Src/stm32f4xx_hal_dma_ex.c ****     /* Configure DMA Stream destination address */
 190:Drivers/STM32F4xx_HAL_Driver/Src/stm32f4xx_hal_dma_ex.c ****     hdma->Instance->M1AR = SecondMemAddress;
 191:Drivers/STM32F4xx_HAL_Driver/Src/stm32f4xx_hal_dma_ex.c ****     
 192:Drivers/STM32F4xx_HAL_Driver/Src/stm32f4xx_hal_dma_ex.c ****     /* Configure the source, destination address and the data length */
 193:Drivers/STM32F4xx_HAL_Driver/Src/stm32f4xx_hal_dma_ex.c ****     DMA_MultiBufferSetConfig(hdma, SrcAddress, DstAddress, DataLength); 
 194:Drivers/STM32F4xx_HAL_Driver/Src/stm32f4xx_hal_dma_ex.c ****     
 195:Drivers/STM32F4xx_HAL_Driver/Src/stm32f4xx_hal_dma_ex.c ****     /* Clear all flags */
 196:Drivers/STM32F4xx_HAL_Driver/Src/stm32f4xx_hal_dma_ex.c ****     __HAL_DMA_CLEAR_FLAG (hdma, __HAL_DMA_GET_TC_FLAG_INDEX(hdma));
 197:Drivers/STM32F4xx_HAL_Driver/Src/stm32f4xx_hal_dma_ex.c ****     __HAL_DMA_CLEAR_FLAG (hdma, __HAL_DMA_GET_HT_FLAG_INDEX(hdma));
 198:Drivers/STM32F4xx_HAL_Driver/Src/stm32f4xx_hal_dma_ex.c ****     __HAL_DMA_CLEAR_FLAG (hdma, __HAL_DMA_GET_TE_FLAG_INDEX(hdma));
 199:Drivers/STM32F4xx_HAL_Driver/Src/stm32f4xx_hal_dma_ex.c ****     __HAL_DMA_CLEAR_FLAG (hdma, __HAL_DMA_GET_DME_FLAG_INDEX(hdma));
 200:Drivers/STM32F4xx_HAL_Driver/Src/stm32f4xx_hal_dma_ex.c ****     __HAL_DMA_CLEAR_FLAG (hdma, __HAL_DMA_GET_FE_FLAG_INDEX(hdma));
 201:Drivers/STM32F4xx_HAL_Driver/Src/stm32f4xx_hal_dma_ex.c **** 
ARM GAS  /tmp/ccWA14hl.s 			page 5


 202:Drivers/STM32F4xx_HAL_Driver/Src/stm32f4xx_hal_dma_ex.c ****     /* Enable Common interrupts*/
 203:Drivers/STM32F4xx_HAL_Driver/Src/stm32f4xx_hal_dma_ex.c ****     hdma->Instance->CR  |= DMA_IT_TC | DMA_IT_TE | DMA_IT_DME;
 204:Drivers/STM32F4xx_HAL_Driver/Src/stm32f4xx_hal_dma_ex.c ****     hdma->Instance->FCR |= DMA_IT_FE;
 205:Drivers/STM32F4xx_HAL_Driver/Src/stm32f4xx_hal_dma_ex.c ****     
 206:Drivers/STM32F4xx_HAL_Driver/Src/stm32f4xx_hal_dma_ex.c ****     if((hdma->XferHalfCpltCallback != NULL) || (hdma->XferM1HalfCpltCallback != NULL))
 207:Drivers/STM32F4xx_HAL_Driver/Src/stm32f4xx_hal_dma_ex.c ****     {
 208:Drivers/STM32F4xx_HAL_Driver/Src/stm32f4xx_hal_dma_ex.c ****       hdma->Instance->CR  |= DMA_IT_HT;
 209:Drivers/STM32F4xx_HAL_Driver/Src/stm32f4xx_hal_dma_ex.c ****     }
 210:Drivers/STM32F4xx_HAL_Driver/Src/stm32f4xx_hal_dma_ex.c ****     
 211:Drivers/STM32F4xx_HAL_Driver/Src/stm32f4xx_hal_dma_ex.c ****     /* Enable the peripheral */
 212:Drivers/STM32F4xx_HAL_Driver/Src/stm32f4xx_hal_dma_ex.c ****     __HAL_DMA_ENABLE(hdma); 
 213:Drivers/STM32F4xx_HAL_Driver/Src/stm32f4xx_hal_dma_ex.c ****   }
 214:Drivers/STM32F4xx_HAL_Driver/Src/stm32f4xx_hal_dma_ex.c ****   else
 215:Drivers/STM32F4xx_HAL_Driver/Src/stm32f4xx_hal_dma_ex.c ****   {     
 216:Drivers/STM32F4xx_HAL_Driver/Src/stm32f4xx_hal_dma_ex.c ****     /* Process unlocked */
 217:Drivers/STM32F4xx_HAL_Driver/Src/stm32f4xx_hal_dma_ex.c ****     __HAL_UNLOCK(hdma);	  
 218:Drivers/STM32F4xx_HAL_Driver/Src/stm32f4xx_hal_dma_ex.c ****     
 219:Drivers/STM32F4xx_HAL_Driver/Src/stm32f4xx_hal_dma_ex.c ****     /* Return error status */
 220:Drivers/STM32F4xx_HAL_Driver/Src/stm32f4xx_hal_dma_ex.c ****     status = HAL_BUSY;
 221:Drivers/STM32F4xx_HAL_Driver/Src/stm32f4xx_hal_dma_ex.c ****   }  
 222:Drivers/STM32F4xx_HAL_Driver/Src/stm32f4xx_hal_dma_ex.c ****   return status; 
 223:Drivers/STM32F4xx_HAL_Driver/Src/stm32f4xx_hal_dma_ex.c **** }
 224:Drivers/STM32F4xx_HAL_Driver/Src/stm32f4xx_hal_dma_ex.c **** 
 225:Drivers/STM32F4xx_HAL_Driver/Src/stm32f4xx_hal_dma_ex.c **** /**
 226:Drivers/STM32F4xx_HAL_Driver/Src/stm32f4xx_hal_dma_ex.c ****   * @brief  Change the memory0 or memory1 address on the fly.
 227:Drivers/STM32F4xx_HAL_Driver/Src/stm32f4xx_hal_dma_ex.c ****   * @param  hdma       pointer to a DMA_HandleTypeDef structure that contains
 228:Drivers/STM32F4xx_HAL_Driver/Src/stm32f4xx_hal_dma_ex.c ****   *                     the configuration information for the specified DMA Stream.  
 229:Drivers/STM32F4xx_HAL_Driver/Src/stm32f4xx_hal_dma_ex.c ****   * @param  Address    The new address
 230:Drivers/STM32F4xx_HAL_Driver/Src/stm32f4xx_hal_dma_ex.c ****   * @param  memory     the memory to be changed, This parameter can be one of 
 231:Drivers/STM32F4xx_HAL_Driver/Src/stm32f4xx_hal_dma_ex.c ****   *                     the following values:
 232:Drivers/STM32F4xx_HAL_Driver/Src/stm32f4xx_hal_dma_ex.c ****   *                      MEMORY0 /
 233:Drivers/STM32F4xx_HAL_Driver/Src/stm32f4xx_hal_dma_ex.c ****   *                      MEMORY1
 234:Drivers/STM32F4xx_HAL_Driver/Src/stm32f4xx_hal_dma_ex.c ****   * @note   The MEMORY0 address can be changed only when the current transfer use
 235:Drivers/STM32F4xx_HAL_Driver/Src/stm32f4xx_hal_dma_ex.c ****   *         MEMORY1 and the MEMORY1 address can be changed only when the current 
 236:Drivers/STM32F4xx_HAL_Driver/Src/stm32f4xx_hal_dma_ex.c ****   *         transfer use MEMORY0.
 237:Drivers/STM32F4xx_HAL_Driver/Src/stm32f4xx_hal_dma_ex.c ****   * @retval HAL status
 238:Drivers/STM32F4xx_HAL_Driver/Src/stm32f4xx_hal_dma_ex.c ****   */
 239:Drivers/STM32F4xx_HAL_Driver/Src/stm32f4xx_hal_dma_ex.c **** HAL_StatusTypeDef HAL_DMAEx_ChangeMemory(DMA_HandleTypeDef *hdma, uint32_t Address, HAL_DMA_MemoryT
 240:Drivers/STM32F4xx_HAL_Driver/Src/stm32f4xx_hal_dma_ex.c **** {
 241:Drivers/STM32F4xx_HAL_Driver/Src/stm32f4xx_hal_dma_ex.c ****   if(memory == MEMORY0)
 242:Drivers/STM32F4xx_HAL_Driver/Src/stm32f4xx_hal_dma_ex.c ****   {
 243:Drivers/STM32F4xx_HAL_Driver/Src/stm32f4xx_hal_dma_ex.c ****     /* change the memory0 address */
 244:Drivers/STM32F4xx_HAL_Driver/Src/stm32f4xx_hal_dma_ex.c ****     hdma->Instance->M0AR = Address;
 245:Drivers/STM32F4xx_HAL_Driver/Src/stm32f4xx_hal_dma_ex.c ****   }
 246:Drivers/STM32F4xx_HAL_Driver/Src/stm32f4xx_hal_dma_ex.c ****   else
 247:Drivers/STM32F4xx_HAL_Driver/Src/stm32f4xx_hal_dma_ex.c ****   {
 248:Drivers/STM32F4xx_HAL_Driver/Src/stm32f4xx_hal_dma_ex.c ****     /* change the memory1 address */
 249:Drivers/STM32F4xx_HAL_Driver/Src/stm32f4xx_hal_dma_ex.c ****     hdma->Instance->M1AR = Address;
 250:Drivers/STM32F4xx_HAL_Driver/Src/stm32f4xx_hal_dma_ex.c ****   }
 251:Drivers/STM32F4xx_HAL_Driver/Src/stm32f4xx_hal_dma_ex.c **** 
 252:Drivers/STM32F4xx_HAL_Driver/Src/stm32f4xx_hal_dma_ex.c ****   return HAL_OK;
 253:Drivers/STM32F4xx_HAL_Driver/Src/stm32f4xx_hal_dma_ex.c **** }
 254:Drivers/STM32F4xx_HAL_Driver/Src/stm32f4xx_hal_dma_ex.c **** 
 255:Drivers/STM32F4xx_HAL_Driver/Src/stm32f4xx_hal_dma_ex.c **** /**
 256:Drivers/STM32F4xx_HAL_Driver/Src/stm32f4xx_hal_dma_ex.c ****   * @}
 257:Drivers/STM32F4xx_HAL_Driver/Src/stm32f4xx_hal_dma_ex.c ****   */
 258:Drivers/STM32F4xx_HAL_Driver/Src/stm32f4xx_hal_dma_ex.c **** 
ARM GAS  /tmp/ccWA14hl.s 			page 6


 259:Drivers/STM32F4xx_HAL_Driver/Src/stm32f4xx_hal_dma_ex.c **** /**
 260:Drivers/STM32F4xx_HAL_Driver/Src/stm32f4xx_hal_dma_ex.c ****   * @}
 261:Drivers/STM32F4xx_HAL_Driver/Src/stm32f4xx_hal_dma_ex.c ****   */
 262:Drivers/STM32F4xx_HAL_Driver/Src/stm32f4xx_hal_dma_ex.c **** 
 263:Drivers/STM32F4xx_HAL_Driver/Src/stm32f4xx_hal_dma_ex.c **** /** @addtogroup DMAEx_Private_Functions
 264:Drivers/STM32F4xx_HAL_Driver/Src/stm32f4xx_hal_dma_ex.c ****   * @{
 265:Drivers/STM32F4xx_HAL_Driver/Src/stm32f4xx_hal_dma_ex.c ****   */
 266:Drivers/STM32F4xx_HAL_Driver/Src/stm32f4xx_hal_dma_ex.c **** 
 267:Drivers/STM32F4xx_HAL_Driver/Src/stm32f4xx_hal_dma_ex.c **** /**
 268:Drivers/STM32F4xx_HAL_Driver/Src/stm32f4xx_hal_dma_ex.c ****   * @brief  Set the DMA Transfer parameter.
 269:Drivers/STM32F4xx_HAL_Driver/Src/stm32f4xx_hal_dma_ex.c ****   * @param  hdma       pointer to a DMA_HandleTypeDef structure that contains
 270:Drivers/STM32F4xx_HAL_Driver/Src/stm32f4xx_hal_dma_ex.c ****   *                     the configuration information for the specified DMA Stream.  
 271:Drivers/STM32F4xx_HAL_Driver/Src/stm32f4xx_hal_dma_ex.c ****   * @param  SrcAddress The source memory Buffer address
 272:Drivers/STM32F4xx_HAL_Driver/Src/stm32f4xx_hal_dma_ex.c ****   * @param  DstAddress The destination memory Buffer address
 273:Drivers/STM32F4xx_HAL_Driver/Src/stm32f4xx_hal_dma_ex.c ****   * @param  DataLength The length of data to be transferred from source to destination
 274:Drivers/STM32F4xx_HAL_Driver/Src/stm32f4xx_hal_dma_ex.c ****   * @retval HAL status
 275:Drivers/STM32F4xx_HAL_Driver/Src/stm32f4xx_hal_dma_ex.c ****   */
 276:Drivers/STM32F4xx_HAL_Driver/Src/stm32f4xx_hal_dma_ex.c **** static void DMA_MultiBufferSetConfig(DMA_HandleTypeDef *hdma, uint32_t SrcAddress, uint32_t DstAddr
 277:Drivers/STM32F4xx_HAL_Driver/Src/stm32f4xx_hal_dma_ex.c **** {  
  29              		.loc 1 277 1 view -0
  30              		.cfi_startproc
  31              		@ args = 0, pretend = 0, frame = 0
  32              		@ frame_needed = 0, uses_anonymous_args = 0
  33              		@ link register save eliminated.
  34              		.loc 1 277 1 is_stmt 0 view .LVU1
  35 0000 10B4     		push	{r4}
  36              	.LCFI0:
  37              		.cfi_def_cfa_offset 4
  38              		.cfi_offset 4, -4
 278:Drivers/STM32F4xx_HAL_Driver/Src/stm32f4xx_hal_dma_ex.c ****   /* Configure DMA Stream data length */
 279:Drivers/STM32F4xx_HAL_Driver/Src/stm32f4xx_hal_dma_ex.c ****   hdma->Instance->NDTR = DataLength;
  39              		.loc 1 279 3 is_stmt 1 view .LVU2
  40              		.loc 1 279 24 is_stmt 0 view .LVU3
  41 0002 0468     		ldr	r4, [r0]
  42 0004 6360     		str	r3, [r4, #4]
 280:Drivers/STM32F4xx_HAL_Driver/Src/stm32f4xx_hal_dma_ex.c ****   
 281:Drivers/STM32F4xx_HAL_Driver/Src/stm32f4xx_hal_dma_ex.c ****   /* Peripheral to Memory */
 282:Drivers/STM32F4xx_HAL_Driver/Src/stm32f4xx_hal_dma_ex.c ****   if((hdma->Init.Direction) == DMA_MEMORY_TO_PERIPH)
  43              		.loc 1 282 3 is_stmt 1 view .LVU4
  44              		.loc 1 282 17 is_stmt 0 view .LVU5
  45 0006 8368     		ldr	r3, [r0, #8]
  46              	.LVL1:
  47              		.loc 1 282 5 view .LVU6
  48 0008 402B     		cmp	r3, #64
  49 000a 06D0     		beq	.L5
 283:Drivers/STM32F4xx_HAL_Driver/Src/stm32f4xx_hal_dma_ex.c ****   {   
 284:Drivers/STM32F4xx_HAL_Driver/Src/stm32f4xx_hal_dma_ex.c ****     /* Configure DMA Stream destination address */
 285:Drivers/STM32F4xx_HAL_Driver/Src/stm32f4xx_hal_dma_ex.c ****     hdma->Instance->PAR = DstAddress;
 286:Drivers/STM32F4xx_HAL_Driver/Src/stm32f4xx_hal_dma_ex.c ****     
 287:Drivers/STM32F4xx_HAL_Driver/Src/stm32f4xx_hal_dma_ex.c ****     /* Configure DMA Stream source address */
 288:Drivers/STM32F4xx_HAL_Driver/Src/stm32f4xx_hal_dma_ex.c ****     hdma->Instance->M0AR = SrcAddress;
 289:Drivers/STM32F4xx_HAL_Driver/Src/stm32f4xx_hal_dma_ex.c ****   }
 290:Drivers/STM32F4xx_HAL_Driver/Src/stm32f4xx_hal_dma_ex.c ****   /* Memory to Peripheral */
 291:Drivers/STM32F4xx_HAL_Driver/Src/stm32f4xx_hal_dma_ex.c ****   else
 292:Drivers/STM32F4xx_HAL_Driver/Src/stm32f4xx_hal_dma_ex.c ****   {
 293:Drivers/STM32F4xx_HAL_Driver/Src/stm32f4xx_hal_dma_ex.c ****     /* Configure DMA Stream source address */
 294:Drivers/STM32F4xx_HAL_Driver/Src/stm32f4xx_hal_dma_ex.c ****     hdma->Instance->PAR = SrcAddress;
ARM GAS  /tmp/ccWA14hl.s 			page 7


  50              		.loc 1 294 5 is_stmt 1 view .LVU7
  51              		.loc 1 294 9 is_stmt 0 view .LVU8
  52 000c 0368     		ldr	r3, [r0]
  53              		.loc 1 294 25 view .LVU9
  54 000e 9960     		str	r1, [r3, #8]
  55              	.LVL2:
 295:Drivers/STM32F4xx_HAL_Driver/Src/stm32f4xx_hal_dma_ex.c ****     
 296:Drivers/STM32F4xx_HAL_Driver/Src/stm32f4xx_hal_dma_ex.c ****     /* Configure DMA Stream destination address */
 297:Drivers/STM32F4xx_HAL_Driver/Src/stm32f4xx_hal_dma_ex.c ****     hdma->Instance->M0AR = DstAddress;
  56              		.loc 1 297 5 is_stmt 1 view .LVU10
  57              		.loc 1 297 9 is_stmt 0 view .LVU11
  58 0010 0368     		ldr	r3, [r0]
  59              		.loc 1 297 26 view .LVU12
  60 0012 DA60     		str	r2, [r3, #12]
  61              	.L1:
 298:Drivers/STM32F4xx_HAL_Driver/Src/stm32f4xx_hal_dma_ex.c ****   }
 299:Drivers/STM32F4xx_HAL_Driver/Src/stm32f4xx_hal_dma_ex.c **** }
  62              		.loc 1 299 1 view .LVU13
  63 0014 5DF8044B 		ldr	r4, [sp], #4
  64              	.LCFI1:
  65              		.cfi_remember_state
  66              		.cfi_restore 4
  67              		.cfi_def_cfa_offset 0
  68 0018 7047     		bx	lr
  69              	.LVL3:
  70              	.L5:
  71              	.LCFI2:
  72              		.cfi_restore_state
 285:Drivers/STM32F4xx_HAL_Driver/Src/stm32f4xx_hal_dma_ex.c ****     
  73              		.loc 1 285 5 is_stmt 1 view .LVU14
 285:Drivers/STM32F4xx_HAL_Driver/Src/stm32f4xx_hal_dma_ex.c ****     
  74              		.loc 1 285 9 is_stmt 0 view .LVU15
  75 001a 0368     		ldr	r3, [r0]
 285:Drivers/STM32F4xx_HAL_Driver/Src/stm32f4xx_hal_dma_ex.c ****     
  76              		.loc 1 285 25 view .LVU16
  77 001c 9A60     		str	r2, [r3, #8]
  78              	.LVL4:
 288:Drivers/STM32F4xx_HAL_Driver/Src/stm32f4xx_hal_dma_ex.c ****   }
  79              		.loc 1 288 5 is_stmt 1 view .LVU17
 288:Drivers/STM32F4xx_HAL_Driver/Src/stm32f4xx_hal_dma_ex.c ****   }
  80              		.loc 1 288 9 is_stmt 0 view .LVU18
  81 001e 0368     		ldr	r3, [r0]
 288:Drivers/STM32F4xx_HAL_Driver/Src/stm32f4xx_hal_dma_ex.c ****   }
  82              		.loc 1 288 26 view .LVU19
  83 0020 D960     		str	r1, [r3, #12]
  84 0022 F7E7     		b	.L1
  85              		.cfi_endproc
  86              	.LFE137:
  88              		.section	.text.HAL_DMAEx_MultiBufferStart,"ax",%progbits
  89              		.align	1
  90              		.global	HAL_DMAEx_MultiBufferStart
  91              		.syntax unified
  92              		.thumb
  93              		.thumb_func
  95              	HAL_DMAEx_MultiBufferStart:
  96              	.LVL5:
  97              	.LFB134:
ARM GAS  /tmp/ccWA14hl.s 			page 8


 101:Drivers/STM32F4xx_HAL_Driver/Src/stm32f4xx_hal_dma_ex.c ****   HAL_StatusTypeDef status = HAL_OK;
  98              		.loc 1 101 1 is_stmt 1 view -0
  99              		.cfi_startproc
 100              		@ args = 4, pretend = 0, frame = 0
 101              		@ frame_needed = 0, uses_anonymous_args = 0
 101:Drivers/STM32F4xx_HAL_Driver/Src/stm32f4xx_hal_dma_ex.c ****   HAL_StatusTypeDef status = HAL_OK;
 102              		.loc 1 101 1 is_stmt 0 view .LVU21
 103 0000 38B5     		push	{r3, r4, r5, lr}
 104              	.LCFI3:
 105              		.cfi_def_cfa_offset 16
 106              		.cfi_offset 3, -16
 107              		.cfi_offset 4, -12
 108              		.cfi_offset 5, -8
 109              		.cfi_offset 14, -4
 110 0002 0446     		mov	r4, r0
 102:Drivers/STM32F4xx_HAL_Driver/Src/stm32f4xx_hal_dma_ex.c ****   
 111              		.loc 1 102 3 is_stmt 1 view .LVU22
 112              	.LVL6:
 105:Drivers/STM32F4xx_HAL_Driver/Src/stm32f4xx_hal_dma_ex.c ****   
 113              		.loc 1 105 3 view .LVU23
 108:Drivers/STM32F4xx_HAL_Driver/Src/stm32f4xx_hal_dma_ex.c ****   {
 114              		.loc 1 108 3 view .LVU24
 108:Drivers/STM32F4xx_HAL_Driver/Src/stm32f4xx_hal_dma_ex.c ****   {
 115              		.loc 1 108 17 is_stmt 0 view .LVU25
 116 0004 8068     		ldr	r0, [r0, #8]
 117              	.LVL7:
 108:Drivers/STM32F4xx_HAL_Driver/Src/stm32f4xx_hal_dma_ex.c ****   {
 118              		.loc 1 108 6 view .LVU26
 119 0006 8028     		cmp	r0, #128
 120 0008 0DD0     		beq	.L12
 116:Drivers/STM32F4xx_HAL_Driver/Src/stm32f4xx_hal_dma_ex.c ****     
 121              		.loc 1 116 5 is_stmt 1 view .LVU27
 116:Drivers/STM32F4xx_HAL_Driver/Src/stm32f4xx_hal_dma_ex.c ****     
 122              		.loc 1 116 5 view .LVU28
 123 000a 94F83400 		ldrb	r0, [r4, #52]	@ zero_extendqisi2
 124 000e 0128     		cmp	r0, #1
 125 0010 23D0     		beq	.L9
 116:Drivers/STM32F4xx_HAL_Driver/Src/stm32f4xx_hal_dma_ex.c ****     
 126              		.loc 1 116 5 discriminator 2 view .LVU29
 127 0012 0120     		movs	r0, #1
 128 0014 84F83400 		strb	r0, [r4, #52]
 116:Drivers/STM32F4xx_HAL_Driver/Src/stm32f4xx_hal_dma_ex.c ****     
 129              		.loc 1 116 5 discriminator 2 view .LVU30
 118:Drivers/STM32F4xx_HAL_Driver/Src/stm32f4xx_hal_dma_ex.c ****     {
 130              		.loc 1 118 5 view .LVU31
 118:Drivers/STM32F4xx_HAL_Driver/Src/stm32f4xx_hal_dma_ex.c ****     {
 131              		.loc 1 118 35 is_stmt 0 view .LVU32
 132 0018 94F83500 		ldrb	r0, [r4, #53]	@ zero_extendqisi2
 133 001c C0B2     		uxtb	r0, r0
 118:Drivers/STM32F4xx_HAL_Driver/Src/stm32f4xx_hal_dma_ex.c ****     {
 134              		.loc 1 118 7 view .LVU33
 135 001e 0128     		cmp	r0, #1
 136 0020 06D0     		beq	.L13
 138:Drivers/STM32F4xx_HAL_Driver/Src/stm32f4xx_hal_dma_ex.c ****     }
 137              		.loc 1 138 14 view .LVU34
 138 0022 0220     		movs	r0, #2
 139              	.LVL8:
ARM GAS  /tmp/ccWA14hl.s 			page 9


 140              	.L8:
 142:Drivers/STM32F4xx_HAL_Driver/Src/stm32f4xx_hal_dma_ex.c **** 
 141              		.loc 1 142 1 view .LVU35
 142 0024 38BD     		pop	{r3, r4, r5, pc}
 143              	.LVL9:
 144              	.L12:
 110:Drivers/STM32F4xx_HAL_Driver/Src/stm32f4xx_hal_dma_ex.c ****     status = HAL_ERROR;
 145              		.loc 1 110 5 is_stmt 1 view .LVU36
 110:Drivers/STM32F4xx_HAL_Driver/Src/stm32f4xx_hal_dma_ex.c ****     status = HAL_ERROR;
 146              		.loc 1 110 21 is_stmt 0 view .LVU37
 147 0026 4FF48073 		mov	r3, #256
 148              	.LVL10:
 110:Drivers/STM32F4xx_HAL_Driver/Src/stm32f4xx_hal_dma_ex.c ****     status = HAL_ERROR;
 149              		.loc 1 110 21 view .LVU38
 150 002a 6365     		str	r3, [r4, #84]
 111:Drivers/STM32F4xx_HAL_Driver/Src/stm32f4xx_hal_dma_ex.c ****   }
 151              		.loc 1 111 5 is_stmt 1 view .LVU39
 152              	.LVL11:
 111:Drivers/STM32F4xx_HAL_Driver/Src/stm32f4xx_hal_dma_ex.c ****   }
 153              		.loc 1 111 12 is_stmt 0 view .LVU40
 154 002c 0120     		movs	r0, #1
 155 002e F9E7     		b	.L8
 156              	.LVL12:
 157              	.L13:
 121:Drivers/STM32F4xx_HAL_Driver/Src/stm32f4xx_hal_dma_ex.c ****       
 158              		.loc 1 121 7 is_stmt 1 view .LVU41
 121:Drivers/STM32F4xx_HAL_Driver/Src/stm32f4xx_hal_dma_ex.c ****       
 159              		.loc 1 121 19 is_stmt 0 view .LVU42
 160 0030 0220     		movs	r0, #2
 161 0032 84F83500 		strb	r0, [r4, #53]
 124:Drivers/STM32F4xx_HAL_Driver/Src/stm32f4xx_hal_dma_ex.c ****       
 162              		.loc 1 124 7 is_stmt 1 view .LVU43
 124:Drivers/STM32F4xx_HAL_Driver/Src/stm32f4xx_hal_dma_ex.c ****       
 163              		.loc 1 124 11 is_stmt 0 view .LVU44
 164 0036 2568     		ldr	r5, [r4]
 124:Drivers/STM32F4xx_HAL_Driver/Src/stm32f4xx_hal_dma_ex.c ****       
 165              		.loc 1 124 21 view .LVU45
 166 0038 2868     		ldr	r0, [r5]
 124:Drivers/STM32F4xx_HAL_Driver/Src/stm32f4xx_hal_dma_ex.c ****       
 167              		.loc 1 124 26 view .LVU46
 168 003a 40F48020 		orr	r0, r0, #262144
 169 003e 2860     		str	r0, [r5]
 127:Drivers/STM32F4xx_HAL_Driver/Src/stm32f4xx_hal_dma_ex.c ****       
 170              		.loc 1 127 7 is_stmt 1 view .LVU47
 127:Drivers/STM32F4xx_HAL_Driver/Src/stm32f4xx_hal_dma_ex.c ****       
 171              		.loc 1 127 11 is_stmt 0 view .LVU48
 172 0040 2068     		ldr	r0, [r4]
 127:Drivers/STM32F4xx_HAL_Driver/Src/stm32f4xx_hal_dma_ex.c ****       
 173              		.loc 1 127 28 view .LVU49
 174 0042 0361     		str	r3, [r0, #16]
 130:Drivers/STM32F4xx_HAL_Driver/Src/stm32f4xx_hal_dma_ex.c ****       
 175              		.loc 1 130 7 is_stmt 1 view .LVU50
 176 0044 049B     		ldr	r3, [sp, #16]
 177              	.LVL13:
 130:Drivers/STM32F4xx_HAL_Driver/Src/stm32f4xx_hal_dma_ex.c ****       
 178              		.loc 1 130 7 is_stmt 0 view .LVU51
 179 0046 2046     		mov	r0, r4
ARM GAS  /tmp/ccWA14hl.s 			page 10


 180              	.LVL14:
 130:Drivers/STM32F4xx_HAL_Driver/Src/stm32f4xx_hal_dma_ex.c ****       
 181              		.loc 1 130 7 view .LVU52
 182 0048 FFF7FEFF 		bl	DMA_MultiBufferSetConfig
 183              	.LVL15:
 133:Drivers/STM32F4xx_HAL_Driver/Src/stm32f4xx_hal_dma_ex.c ****     }
 184              		.loc 1 133 7 is_stmt 1 view .LVU53
 185 004c 2268     		ldr	r2, [r4]
 186 004e 1368     		ldr	r3, [r2]
 187 0050 43F00103 		orr	r3, r3, #1
 188 0054 1360     		str	r3, [r2]
 102:Drivers/STM32F4xx_HAL_Driver/Src/stm32f4xx_hal_dma_ex.c ****   
 189              		.loc 1 102 21 is_stmt 0 view .LVU54
 190 0056 0020     		movs	r0, #0
 191 0058 E4E7     		b	.L8
 192              	.LVL16:
 193              	.L9:
 116:Drivers/STM32F4xx_HAL_Driver/Src/stm32f4xx_hal_dma_ex.c ****     
 194              		.loc 1 116 5 discriminator 1 view .LVU55
 195 005a 0220     		movs	r0, #2
 196 005c E2E7     		b	.L8
 197              		.cfi_endproc
 198              	.LFE134:
 200              		.section	.text.HAL_DMAEx_MultiBufferStart_IT,"ax",%progbits
 201              		.align	1
 202              		.global	HAL_DMAEx_MultiBufferStart_IT
 203              		.syntax unified
 204              		.thumb
 205              		.thumb_func
 207              	HAL_DMAEx_MultiBufferStart_IT:
 208              	.LVL17:
 209              	.LFB135:
 155:Drivers/STM32F4xx_HAL_Driver/Src/stm32f4xx_hal_dma_ex.c ****   HAL_StatusTypeDef status = HAL_OK;
 210              		.loc 1 155 1 is_stmt 1 view -0
 211              		.cfi_startproc
 212              		@ args = 4, pretend = 0, frame = 0
 213              		@ frame_needed = 0, uses_anonymous_args = 0
 155:Drivers/STM32F4xx_HAL_Driver/Src/stm32f4xx_hal_dma_ex.c ****   HAL_StatusTypeDef status = HAL_OK;
 214              		.loc 1 155 1 is_stmt 0 view .LVU57
 215 0000 38B5     		push	{r3, r4, r5, lr}
 216              	.LCFI4:
 217              		.cfi_def_cfa_offset 16
 218              		.cfi_offset 3, -16
 219              		.cfi_offset 4, -12
 220              		.cfi_offset 5, -8
 221              		.cfi_offset 14, -4
 222 0002 0446     		mov	r4, r0
 156:Drivers/STM32F4xx_HAL_Driver/Src/stm32f4xx_hal_dma_ex.c ****   
 223              		.loc 1 156 3 is_stmt 1 view .LVU58
 224              	.LVL18:
 159:Drivers/STM32F4xx_HAL_Driver/Src/stm32f4xx_hal_dma_ex.c ****   
 225              		.loc 1 159 3 view .LVU59
 162:Drivers/STM32F4xx_HAL_Driver/Src/stm32f4xx_hal_dma_ex.c ****   {
 226              		.loc 1 162 3 view .LVU60
 162:Drivers/STM32F4xx_HAL_Driver/Src/stm32f4xx_hal_dma_ex.c ****   {
 227              		.loc 1 162 17 is_stmt 0 view .LVU61
 228 0004 8068     		ldr	r0, [r0, #8]
ARM GAS  /tmp/ccWA14hl.s 			page 11


 229              	.LVL19:
 162:Drivers/STM32F4xx_HAL_Driver/Src/stm32f4xx_hal_dma_ex.c ****   {
 230              		.loc 1 162 6 view .LVU62
 231 0006 8028     		cmp	r0, #128
 232 0008 17D0     		beq	.L304
 169:Drivers/STM32F4xx_HAL_Driver/Src/stm32f4xx_hal_dma_ex.c ****   {
 233              		.loc 1 169 3 is_stmt 1 view .LVU63
 169:Drivers/STM32F4xx_HAL_Driver/Src/stm32f4xx_hal_dma_ex.c ****   {
 234              		.loc 1 169 20 is_stmt 0 view .LVU64
 235 000a E06B     		ldr	r0, [r4, #60]
 169:Drivers/STM32F4xx_HAL_Driver/Src/stm32f4xx_hal_dma_ex.c ****   {
 236              		.loc 1 169 6 view .LVU65
 237 000c D0B1     		cbz	r0, .L17
 169:Drivers/STM32F4xx_HAL_Driver/Src/stm32f4xx_hal_dma_ex.c ****   {
 238              		.loc 1 169 56 discriminator 1 view .LVU66
 239 000e 606C     		ldr	r0, [r4, #68]
 169:Drivers/STM32F4xx_HAL_Driver/Src/stm32f4xx_hal_dma_ex.c ****   {
 240              		.loc 1 169 40 discriminator 1 view .LVU67
 241 0010 C0B1     		cbz	r0, .L17
 169:Drivers/STM32F4xx_HAL_Driver/Src/stm32f4xx_hal_dma_ex.c ****   {
 242              		.loc 1 169 94 discriminator 2 view .LVU68
 243 0012 E06C     		ldr	r0, [r4, #76]
 169:Drivers/STM32F4xx_HAL_Driver/Src/stm32f4xx_hal_dma_ex.c ****   {
 244              		.loc 1 169 78 discriminator 2 view .LVU69
 245 0014 B0B1     		cbz	r0, .L17
 176:Drivers/STM32F4xx_HAL_Driver/Src/stm32f4xx_hal_dma_ex.c ****   
 246              		.loc 1 176 3 is_stmt 1 view .LVU70
 176:Drivers/STM32F4xx_HAL_Driver/Src/stm32f4xx_hal_dma_ex.c ****   
 247              		.loc 1 176 3 view .LVU71
 248 0016 94F83400 		ldrb	r0, [r4, #52]	@ zero_extendqisi2
 249 001a 0128     		cmp	r0, #1
 250 001c 00F06987 		beq	.L62
 176:Drivers/STM32F4xx_HAL_Driver/Src/stm32f4xx_hal_dma_ex.c ****   
 251              		.loc 1 176 3 discriminator 2 view .LVU72
 252 0020 0120     		movs	r0, #1
 253 0022 84F83400 		strb	r0, [r4, #52]
 176:Drivers/STM32F4xx_HAL_Driver/Src/stm32f4xx_hal_dma_ex.c ****   
 254              		.loc 1 176 3 discriminator 2 view .LVU73
 178:Drivers/STM32F4xx_HAL_Driver/Src/stm32f4xx_hal_dma_ex.c ****   {
 255              		.loc 1 178 3 view .LVU74
 178:Drivers/STM32F4xx_HAL_Driver/Src/stm32f4xx_hal_dma_ex.c ****   {
 256              		.loc 1 178 33 is_stmt 0 view .LVU75
 257 0026 94F83500 		ldrb	r0, [r4, #53]	@ zero_extendqisi2
 258 002a C0B2     		uxtb	r0, r0
 178:Drivers/STM32F4xx_HAL_Driver/Src/stm32f4xx_hal_dma_ex.c ****   {
 259              		.loc 1 178 5 view .LVU76
 260 002c 0128     		cmp	r0, #1
 261 002e 0DD0     		beq	.L305
 217:Drivers/STM32F4xx_HAL_Driver/Src/stm32f4xx_hal_dma_ex.c ****     
 262              		.loc 1 217 5 is_stmt 1 view .LVU77
 217:Drivers/STM32F4xx_HAL_Driver/Src/stm32f4xx_hal_dma_ex.c ****     
 263              		.loc 1 217 5 view .LVU78
 264 0030 0023     		movs	r3, #0
 265              	.LVL20:
 217:Drivers/STM32F4xx_HAL_Driver/Src/stm32f4xx_hal_dma_ex.c ****     
 266              		.loc 1 217 5 is_stmt 0 view .LVU79
 267 0032 84F83430 		strb	r3, [r4, #52]
ARM GAS  /tmp/ccWA14hl.s 			page 12


 217:Drivers/STM32F4xx_HAL_Driver/Src/stm32f4xx_hal_dma_ex.c ****     
 268              		.loc 1 217 5 is_stmt 1 view .LVU80
 220:Drivers/STM32F4xx_HAL_Driver/Src/stm32f4xx_hal_dma_ex.c ****   }  
 269              		.loc 1 220 5 view .LVU81
 270              	.LVL21:
 220:Drivers/STM32F4xx_HAL_Driver/Src/stm32f4xx_hal_dma_ex.c ****   }  
 271              		.loc 1 220 12 is_stmt 0 view .LVU82
 272 0036 0220     		movs	r0, #2
 273 0038 07E0     		b	.L16
 274              	.LVL22:
 275              	.L304:
 164:Drivers/STM32F4xx_HAL_Driver/Src/stm32f4xx_hal_dma_ex.c ****     return HAL_ERROR;
 276              		.loc 1 164 5 is_stmt 1 view .LVU83
 164:Drivers/STM32F4xx_HAL_Driver/Src/stm32f4xx_hal_dma_ex.c ****     return HAL_ERROR;
 277              		.loc 1 164 21 is_stmt 0 view .LVU84
 278 003a 4FF48073 		mov	r3, #256
 279              	.LVL23:
 164:Drivers/STM32F4xx_HAL_Driver/Src/stm32f4xx_hal_dma_ex.c ****     return HAL_ERROR;
 280              		.loc 1 164 21 view .LVU85
 281 003e 6365     		str	r3, [r4, #84]
 165:Drivers/STM32F4xx_HAL_Driver/Src/stm32f4xx_hal_dma_ex.c ****   }
 282              		.loc 1 165 5 is_stmt 1 view .LVU86
 165:Drivers/STM32F4xx_HAL_Driver/Src/stm32f4xx_hal_dma_ex.c ****   }
 283              		.loc 1 165 12 is_stmt 0 view .LVU87
 284 0040 0120     		movs	r0, #1
 285 0042 02E0     		b	.L16
 286              	.LVL24:
 287              	.L17:
 171:Drivers/STM32F4xx_HAL_Driver/Src/stm32f4xx_hal_dma_ex.c ****     return HAL_ERROR;
 288              		.loc 1 171 5 is_stmt 1 view .LVU88
 171:Drivers/STM32F4xx_HAL_Driver/Src/stm32f4xx_hal_dma_ex.c ****     return HAL_ERROR;
 289              		.loc 1 171 21 is_stmt 0 view .LVU89
 290 0044 4023     		movs	r3, #64
 291              	.LVL25:
 171:Drivers/STM32F4xx_HAL_Driver/Src/stm32f4xx_hal_dma_ex.c ****     return HAL_ERROR;
 292              		.loc 1 171 21 view .LVU90
 293 0046 6365     		str	r3, [r4, #84]
 172:Drivers/STM32F4xx_HAL_Driver/Src/stm32f4xx_hal_dma_ex.c ****   }
 294              		.loc 1 172 5 is_stmt 1 view .LVU91
 172:Drivers/STM32F4xx_HAL_Driver/Src/stm32f4xx_hal_dma_ex.c ****   }
 295              		.loc 1 172 12 is_stmt 0 view .LVU92
 296 0048 0120     		movs	r0, #1
 297              	.LVL26:
 298              	.L16:
 223:Drivers/STM32F4xx_HAL_Driver/Src/stm32f4xx_hal_dma_ex.c **** 
 299              		.loc 1 223 1 view .LVU93
 300 004a 38BD     		pop	{r3, r4, r5, pc}
 301              	.LVL27:
 302              	.L305:
 181:Drivers/STM32F4xx_HAL_Driver/Src/stm32f4xx_hal_dma_ex.c ****     
 303              		.loc 1 181 5 is_stmt 1 view .LVU94
 181:Drivers/STM32F4xx_HAL_Driver/Src/stm32f4xx_hal_dma_ex.c ****     
 304              		.loc 1 181 17 is_stmt 0 view .LVU95
 305 004c 0220     		movs	r0, #2
 306 004e 84F83500 		strb	r0, [r4, #53]
 184:Drivers/STM32F4xx_HAL_Driver/Src/stm32f4xx_hal_dma_ex.c ****     
 307              		.loc 1 184 5 is_stmt 1 view .LVU96
ARM GAS  /tmp/ccWA14hl.s 			page 13


 184:Drivers/STM32F4xx_HAL_Driver/Src/stm32f4xx_hal_dma_ex.c ****     
 308              		.loc 1 184 21 is_stmt 0 view .LVU97
 309 0052 0020     		movs	r0, #0
 310 0054 6065     		str	r0, [r4, #84]
 187:Drivers/STM32F4xx_HAL_Driver/Src/stm32f4xx_hal_dma_ex.c ****     
 311              		.loc 1 187 5 is_stmt 1 view .LVU98
 187:Drivers/STM32F4xx_HAL_Driver/Src/stm32f4xx_hal_dma_ex.c ****     
 312              		.loc 1 187 9 is_stmt 0 view .LVU99
 313 0056 2568     		ldr	r5, [r4]
 187:Drivers/STM32F4xx_HAL_Driver/Src/stm32f4xx_hal_dma_ex.c ****     
 314              		.loc 1 187 19 view .LVU100
 315 0058 2868     		ldr	r0, [r5]
 187:Drivers/STM32F4xx_HAL_Driver/Src/stm32f4xx_hal_dma_ex.c ****     
 316              		.loc 1 187 24 view .LVU101
 317 005a 40F48020 		orr	r0, r0, #262144
 318 005e 2860     		str	r0, [r5]
 190:Drivers/STM32F4xx_HAL_Driver/Src/stm32f4xx_hal_dma_ex.c ****     
 319              		.loc 1 190 5 is_stmt 1 view .LVU102
 190:Drivers/STM32F4xx_HAL_Driver/Src/stm32f4xx_hal_dma_ex.c ****     
 320              		.loc 1 190 9 is_stmt 0 view .LVU103
 321 0060 2068     		ldr	r0, [r4]
 190:Drivers/STM32F4xx_HAL_Driver/Src/stm32f4xx_hal_dma_ex.c ****     
 322              		.loc 1 190 26 view .LVU104
 323 0062 0361     		str	r3, [r0, #16]
 193:Drivers/STM32F4xx_HAL_Driver/Src/stm32f4xx_hal_dma_ex.c ****     
 324              		.loc 1 193 5 is_stmt 1 view .LVU105
 325 0064 049B     		ldr	r3, [sp, #16]
 326              	.LVL28:
 193:Drivers/STM32F4xx_HAL_Driver/Src/stm32f4xx_hal_dma_ex.c ****     
 327              		.loc 1 193 5 is_stmt 0 view .LVU106
 328 0066 2046     		mov	r0, r4
 329              	.LVL29:
 193:Drivers/STM32F4xx_HAL_Driver/Src/stm32f4xx_hal_dma_ex.c ****     
 330              		.loc 1 193 5 view .LVU107
 331 0068 FFF7FEFF 		bl	DMA_MultiBufferSetConfig
 332              	.LVL30:
 196:Drivers/STM32F4xx_HAL_Driver/Src/stm32f4xx_hal_dma_ex.c ****     __HAL_DMA_CLEAR_FLAG (hdma, __HAL_DMA_GET_HT_FLAG_INDEX(hdma));
 333              		.loc 1 196 5 is_stmt 1 view .LVU108
 334 006c 2368     		ldr	r3, [r4]
 335 006e A54A     		ldr	r2, .L327
 336 0070 9342     		cmp	r3, r2
 337 0072 40F29880 		bls	.L20
 196:Drivers/STM32F4xx_HAL_Driver/Src/stm32f4xx_hal_dma_ex.c ****     __HAL_DMA_CLEAR_FLAG (hdma, __HAL_DMA_GET_HT_FLAG_INDEX(hdma));
 338              		.loc 1 196 5 is_stmt 0 discriminator 1 view .LVU109
 339 0076 A2F58962 		sub	r2, r2, #1096
 340 007a 9342     		cmp	r3, r2
 341 007c 31D0     		beq	.L63
 196:Drivers/STM32F4xx_HAL_Driver/Src/stm32f4xx_hal_dma_ex.c ****     __HAL_DMA_CLEAR_FLAG (hdma, __HAL_DMA_GET_HT_FLAG_INDEX(hdma));
 342              		.loc 1 196 5 discriminator 3 view .LVU110
 343 007e 02F58062 		add	r2, r2, #1024
 344 0082 9342     		cmp	r3, r2
 345 0084 74D0     		beq	.L64
 196:Drivers/STM32F4xx_HAL_Driver/Src/stm32f4xx_hal_dma_ex.c ****     __HAL_DMA_CLEAR_FLAG (hdma, __HAL_DMA_GET_HT_FLAG_INDEX(hdma));
 346              		.loc 1 196 5 discriminator 5 view .LVU111
 347 0086 A2F56872 		sub	r2, r2, #928
 348 008a 9342     		cmp	r3, r2
 349 008c 72D0     		beq	.L65
ARM GAS  /tmp/ccWA14hl.s 			page 14


 196:Drivers/STM32F4xx_HAL_Driver/Src/stm32f4xx_hal_dma_ex.c ****     __HAL_DMA_CLEAR_FLAG (hdma, __HAL_DMA_GET_HT_FLAG_INDEX(hdma));
 350              		.loc 1 196 5 discriminator 7 view .LVU112
 351 008e 02F58062 		add	r2, r2, #1024
 352 0092 9342     		cmp	r3, r2
 353 0094 70D0     		beq	.L66
 196:Drivers/STM32F4xx_HAL_Driver/Src/stm32f4xx_hal_dma_ex.c ****     __HAL_DMA_CLEAR_FLAG (hdma, __HAL_DMA_GET_HT_FLAG_INDEX(hdma));
 354              		.loc 1 196 5 discriminator 9 view .LVU113
 355 0096 A2F58962 		sub	r2, r2, #1096
 356 009a 9342     		cmp	r3, r2
 357 009c 6ED0     		beq	.L67
 196:Drivers/STM32F4xx_HAL_Driver/Src/stm32f4xx_hal_dma_ex.c ****     __HAL_DMA_CLEAR_FLAG (hdma, __HAL_DMA_GET_HT_FLAG_INDEX(hdma));
 358              		.loc 1 196 5 discriminator 11 view .LVU114
 359 009e 02F58062 		add	r2, r2, #1024
 360 00a2 9342     		cmp	r3, r2
 361 00a4 6DD0     		beq	.L68
 196:Drivers/STM32F4xx_HAL_Driver/Src/stm32f4xx_hal_dma_ex.c ****     __HAL_DMA_CLEAR_FLAG (hdma, __HAL_DMA_GET_HT_FLAG_INDEX(hdma));
 362              		.loc 1 196 5 discriminator 13 view .LVU115
 363 00a6 A2F56872 		sub	r2, r2, #928
 364 00aa 9342     		cmp	r3, r2
 365 00ac 6CD0     		beq	.L69
 196:Drivers/STM32F4xx_HAL_Driver/Src/stm32f4xx_hal_dma_ex.c ****     __HAL_DMA_CLEAR_FLAG (hdma, __HAL_DMA_GET_HT_FLAG_INDEX(hdma));
 366              		.loc 1 196 5 discriminator 15 view .LVU116
 367 00ae 02F58062 		add	r2, r2, #1024
 368 00b2 9342     		cmp	r3, r2
 369 00b4 6BD0     		beq	.L70
 196:Drivers/STM32F4xx_HAL_Driver/Src/stm32f4xx_hal_dma_ex.c ****     __HAL_DMA_CLEAR_FLAG (hdma, __HAL_DMA_GET_HT_FLAG_INDEX(hdma));
 370              		.loc 1 196 5 discriminator 17 view .LVU117
 371 00b6 A2F58962 		sub	r2, r2, #1096
 372 00ba 9342     		cmp	r3, r2
 373 00bc 6AD0     		beq	.L71
 196:Drivers/STM32F4xx_HAL_Driver/Src/stm32f4xx_hal_dma_ex.c ****     __HAL_DMA_CLEAR_FLAG (hdma, __HAL_DMA_GET_HT_FLAG_INDEX(hdma));
 374              		.loc 1 196 5 discriminator 19 view .LVU118
 375 00be 02F58062 		add	r2, r2, #1024
 376 00c2 9342     		cmp	r3, r2
 377 00c4 69D0     		beq	.L72
 196:Drivers/STM32F4xx_HAL_Driver/Src/stm32f4xx_hal_dma_ex.c ****     __HAL_DMA_CLEAR_FLAG (hdma, __HAL_DMA_GET_HT_FLAG_INDEX(hdma));
 378              		.loc 1 196 5 discriminator 21 view .LVU119
 379 00c6 A2F56872 		sub	r2, r2, #928
 380 00ca 9342     		cmp	r3, r2
 381 00cc 68D0     		beq	.L73
 196:Drivers/STM32F4xx_HAL_Driver/Src/stm32f4xx_hal_dma_ex.c ****     __HAL_DMA_CLEAR_FLAG (hdma, __HAL_DMA_GET_HT_FLAG_INDEX(hdma));
 382              		.loc 1 196 5 discriminator 23 view .LVU120
 383 00ce 02F58062 		add	r2, r2, #1024
 384 00d2 9342     		cmp	r3, r2
 385 00d4 02D0     		beq	.L306
 196:Drivers/STM32F4xx_HAL_Driver/Src/stm32f4xx_hal_dma_ex.c ****     __HAL_DMA_CLEAR_FLAG (hdma, __HAL_DMA_GET_HT_FLAG_INDEX(hdma));
 386              		.loc 1 196 5 discriminator 26 view .LVU121
 387 00d6 4FF00062 		mov	r2, #134217728
 388 00da 03E0     		b	.L21
 389              	.L306:
 196:Drivers/STM32F4xx_HAL_Driver/Src/stm32f4xx_hal_dma_ex.c ****     __HAL_DMA_CLEAR_FLAG (hdma, __HAL_DMA_GET_HT_FLAG_INDEX(hdma));
 390              		.loc 1 196 5 discriminator 25 view .LVU122
 391 00dc 4FF40012 		mov	r2, #2097152
 392 00e0 00E0     		b	.L21
 393              	.L63:
 196:Drivers/STM32F4xx_HAL_Driver/Src/stm32f4xx_hal_dma_ex.c ****     __HAL_DMA_CLEAR_FLAG (hdma, __HAL_DMA_GET_HT_FLAG_INDEX(hdma));
 394              		.loc 1 196 5 discriminator 4 view .LVU123
ARM GAS  /tmp/ccWA14hl.s 			page 15


 395 00e2 2022     		movs	r2, #32
 396              	.L21:
 196:Drivers/STM32F4xx_HAL_Driver/Src/stm32f4xx_hal_dma_ex.c ****     __HAL_DMA_CLEAR_FLAG (hdma, __HAL_DMA_GET_HT_FLAG_INDEX(hdma));
 397              		.loc 1 196 5 discriminator 50 view .LVU124
 398 00e4 884B     		ldr	r3, .L327+4
 399 00e6 DA60     		str	r2, [r3, #12]
 400              	.LVL31:
 401              	.L22:
 197:Drivers/STM32F4xx_HAL_Driver/Src/stm32f4xx_hal_dma_ex.c ****     __HAL_DMA_CLEAR_FLAG (hdma, __HAL_DMA_GET_TE_FLAG_INDEX(hdma));
 402              		.loc 1 197 5 is_stmt 1 view .LVU125
 403 00e8 2368     		ldr	r3, [r4]
 404 00ea 864A     		ldr	r2, .L327
 405 00ec 9342     		cmp	r3, r2
 406 00ee 40F2CC81 		bls	.L28
 197:Drivers/STM32F4xx_HAL_Driver/Src/stm32f4xx_hal_dma_ex.c ****     __HAL_DMA_CLEAR_FLAG (hdma, __HAL_DMA_GET_TE_FLAG_INDEX(hdma));
 407              		.loc 1 197 5 is_stmt 0 discriminator 1 view .LVU126
 408 00f2 A2F58962 		sub	r2, r2, #1096
 409 00f6 9342     		cmp	r3, r2
 410 00f8 00F06581 		beq	.L111
 197:Drivers/STM32F4xx_HAL_Driver/Src/stm32f4xx_hal_dma_ex.c ****     __HAL_DMA_CLEAR_FLAG (hdma, __HAL_DMA_GET_TE_FLAG_INDEX(hdma));
 411              		.loc 1 197 5 discriminator 3 view .LVU127
 412 00fc 02F58062 		add	r2, r2, #1024
 413 0100 9342     		cmp	r3, r2
 414 0102 00F0A781 		beq	.L112
 197:Drivers/STM32F4xx_HAL_Driver/Src/stm32f4xx_hal_dma_ex.c ****     __HAL_DMA_CLEAR_FLAG (hdma, __HAL_DMA_GET_TE_FLAG_INDEX(hdma));
 415              		.loc 1 197 5 discriminator 5 view .LVU128
 416 0106 A2F56872 		sub	r2, r2, #928
 417 010a 9342     		cmp	r3, r2
 418 010c 00F0A481 		beq	.L113
 197:Drivers/STM32F4xx_HAL_Driver/Src/stm32f4xx_hal_dma_ex.c ****     __HAL_DMA_CLEAR_FLAG (hdma, __HAL_DMA_GET_TE_FLAG_INDEX(hdma));
 419              		.loc 1 197 5 discriminator 7 view .LVU129
 420 0110 02F58062 		add	r2, r2, #1024
 421 0114 9342     		cmp	r3, r2
 422 0116 00F0A181 		beq	.L114
 197:Drivers/STM32F4xx_HAL_Driver/Src/stm32f4xx_hal_dma_ex.c ****     __HAL_DMA_CLEAR_FLAG (hdma, __HAL_DMA_GET_TE_FLAG_INDEX(hdma));
 423              		.loc 1 197 5 discriminator 9 view .LVU130
 424 011a A2F58962 		sub	r2, r2, #1096
 425 011e 9342     		cmp	r3, r2
 426 0120 00F09E81 		beq	.L115
 197:Drivers/STM32F4xx_HAL_Driver/Src/stm32f4xx_hal_dma_ex.c ****     __HAL_DMA_CLEAR_FLAG (hdma, __HAL_DMA_GET_TE_FLAG_INDEX(hdma));
 427              		.loc 1 197 5 discriminator 11 view .LVU131
 428 0124 02F58062 		add	r2, r2, #1024
 429 0128 9342     		cmp	r3, r2
 430 012a 00F09C81 		beq	.L116
 197:Drivers/STM32F4xx_HAL_Driver/Src/stm32f4xx_hal_dma_ex.c ****     __HAL_DMA_CLEAR_FLAG (hdma, __HAL_DMA_GET_TE_FLAG_INDEX(hdma));
 431              		.loc 1 197 5 discriminator 13 view .LVU132
 432 012e A2F56872 		sub	r2, r2, #928
 433 0132 9342     		cmp	r3, r2
 434 0134 00F09A81 		beq	.L117
 197:Drivers/STM32F4xx_HAL_Driver/Src/stm32f4xx_hal_dma_ex.c ****     __HAL_DMA_CLEAR_FLAG (hdma, __HAL_DMA_GET_TE_FLAG_INDEX(hdma));
 435              		.loc 1 197 5 discriminator 15 view .LVU133
 436 0138 02F58062 		add	r2, r2, #1024
 437 013c 9342     		cmp	r3, r2
 438 013e 00F09881 		beq	.L118
 197:Drivers/STM32F4xx_HAL_Driver/Src/stm32f4xx_hal_dma_ex.c ****     __HAL_DMA_CLEAR_FLAG (hdma, __HAL_DMA_GET_TE_FLAG_INDEX(hdma));
 439              		.loc 1 197 5 discriminator 17 view .LVU134
 440 0142 A2F58962 		sub	r2, r2, #1096
ARM GAS  /tmp/ccWA14hl.s 			page 16


 441 0146 9342     		cmp	r3, r2
 442 0148 00F09681 		beq	.L119
 197:Drivers/STM32F4xx_HAL_Driver/Src/stm32f4xx_hal_dma_ex.c ****     __HAL_DMA_CLEAR_FLAG (hdma, __HAL_DMA_GET_TE_FLAG_INDEX(hdma));
 443              		.loc 1 197 5 discriminator 19 view .LVU135
 444 014c 02F58062 		add	r2, r2, #1024
 445 0150 9342     		cmp	r3, r2
 446 0152 00F09481 		beq	.L120
 197:Drivers/STM32F4xx_HAL_Driver/Src/stm32f4xx_hal_dma_ex.c ****     __HAL_DMA_CLEAR_FLAG (hdma, __HAL_DMA_GET_TE_FLAG_INDEX(hdma));
 447              		.loc 1 197 5 discriminator 21 view .LVU136
 448 0156 A2F56872 		sub	r2, r2, #928
 449 015a 9342     		cmp	r3, r2
 450 015c 00F09281 		beq	.L121
 197:Drivers/STM32F4xx_HAL_Driver/Src/stm32f4xx_hal_dma_ex.c ****     __HAL_DMA_CLEAR_FLAG (hdma, __HAL_DMA_GET_TE_FLAG_INDEX(hdma));
 451              		.loc 1 197 5 discriminator 23 view .LVU137
 452 0160 02F58062 		add	r2, r2, #1024
 453 0164 9342     		cmp	r3, r2
 454 0166 00F02B81 		beq	.L307
 197:Drivers/STM32F4xx_HAL_Driver/Src/stm32f4xx_hal_dma_ex.c ****     __HAL_DMA_CLEAR_FLAG (hdma, __HAL_DMA_GET_TE_FLAG_INDEX(hdma));
 455              		.loc 1 197 5 discriminator 26 view .LVU138
 456 016a 4FF08062 		mov	r2, #67108864
 457 016e 2BE1     		b	.L29
 458              	.LVL32:
 459              	.L64:
 196:Drivers/STM32F4xx_HAL_Driver/Src/stm32f4xx_hal_dma_ex.c ****     __HAL_DMA_CLEAR_FLAG (hdma, __HAL_DMA_GET_HT_FLAG_INDEX(hdma));
 460              		.loc 1 196 5 discriminator 6 view .LVU139
 461 0170 2022     		movs	r2, #32
 462 0172 B7E7     		b	.L21
 463              	.L65:
 196:Drivers/STM32F4xx_HAL_Driver/Src/stm32f4xx_hal_dma_ex.c ****     __HAL_DMA_CLEAR_FLAG (hdma, __HAL_DMA_GET_HT_FLAG_INDEX(hdma));
 464              		.loc 1 196 5 discriminator 8 view .LVU140
 465 0174 2022     		movs	r2, #32
 466 0176 B5E7     		b	.L21
 467              	.L66:
 196:Drivers/STM32F4xx_HAL_Driver/Src/stm32f4xx_hal_dma_ex.c ****     __HAL_DMA_CLEAR_FLAG (hdma, __HAL_DMA_GET_HT_FLAG_INDEX(hdma));
 468              		.loc 1 196 5 discriminator 10 view .LVU141
 469 0178 2022     		movs	r2, #32
 470 017a B3E7     		b	.L21
 471              	.L67:
 196:Drivers/STM32F4xx_HAL_Driver/Src/stm32f4xx_hal_dma_ex.c ****     __HAL_DMA_CLEAR_FLAG (hdma, __HAL_DMA_GET_HT_FLAG_INDEX(hdma));
 472              		.loc 1 196 5 discriminator 12 view .LVU142
 473 017c 4FF40062 		mov	r2, #2048
 474 0180 B0E7     		b	.L21
 475              	.L68:
 196:Drivers/STM32F4xx_HAL_Driver/Src/stm32f4xx_hal_dma_ex.c ****     __HAL_DMA_CLEAR_FLAG (hdma, __HAL_DMA_GET_HT_FLAG_INDEX(hdma));
 476              		.loc 1 196 5 discriminator 14 view .LVU143
 477 0182 4FF40062 		mov	r2, #2048
 478 0186 ADE7     		b	.L21
 479              	.L69:
 196:Drivers/STM32F4xx_HAL_Driver/Src/stm32f4xx_hal_dma_ex.c ****     __HAL_DMA_CLEAR_FLAG (hdma, __HAL_DMA_GET_HT_FLAG_INDEX(hdma));
 480              		.loc 1 196 5 discriminator 16 view .LVU144
 481 0188 4FF40062 		mov	r2, #2048
 482 018c AAE7     		b	.L21
 483              	.L70:
 196:Drivers/STM32F4xx_HAL_Driver/Src/stm32f4xx_hal_dma_ex.c ****     __HAL_DMA_CLEAR_FLAG (hdma, __HAL_DMA_GET_HT_FLAG_INDEX(hdma));
 484              		.loc 1 196 5 discriminator 18 view .LVU145
 485 018e 4FF40062 		mov	r2, #2048
 486 0192 A7E7     		b	.L21
ARM GAS  /tmp/ccWA14hl.s 			page 17


 487              	.L71:
 196:Drivers/STM32F4xx_HAL_Driver/Src/stm32f4xx_hal_dma_ex.c ****     __HAL_DMA_CLEAR_FLAG (hdma, __HAL_DMA_GET_HT_FLAG_INDEX(hdma));
 488              		.loc 1 196 5 discriminator 20 view .LVU146
 489 0194 4FF40012 		mov	r2, #2097152
 490 0198 A4E7     		b	.L21
 491              	.L72:
 196:Drivers/STM32F4xx_HAL_Driver/Src/stm32f4xx_hal_dma_ex.c ****     __HAL_DMA_CLEAR_FLAG (hdma, __HAL_DMA_GET_HT_FLAG_INDEX(hdma));
 492              		.loc 1 196 5 discriminator 22 view .LVU147
 493 019a 4FF40012 		mov	r2, #2097152
 494 019e A1E7     		b	.L21
 495              	.L73:
 196:Drivers/STM32F4xx_HAL_Driver/Src/stm32f4xx_hal_dma_ex.c ****     __HAL_DMA_CLEAR_FLAG (hdma, __HAL_DMA_GET_HT_FLAG_INDEX(hdma));
 496              		.loc 1 196 5 discriminator 24 view .LVU148
 497 01a0 4FF40012 		mov	r2, #2097152
 498 01a4 9EE7     		b	.L21
 499              	.L20:
 196:Drivers/STM32F4xx_HAL_Driver/Src/stm32f4xx_hal_dma_ex.c ****     __HAL_DMA_CLEAR_FLAG (hdma, __HAL_DMA_GET_HT_FLAG_INDEX(hdma));
 500              		.loc 1 196 5 discriminator 2 view .LVU149
 501 01a6 594A     		ldr	r2, .L327+8
 502 01a8 9342     		cmp	r3, r2
 503 01aa 53D9     		bls	.L23
 196:Drivers/STM32F4xx_HAL_Driver/Src/stm32f4xx_hal_dma_ex.c ****     __HAL_DMA_CLEAR_FLAG (hdma, __HAL_DMA_GET_HT_FLAG_INDEX(hdma));
 504              		.loc 1 196 5 discriminator 51 view .LVU150
 505 01ac A83A     		subs	r2, r2, #168
 506 01ae 9342     		cmp	r3, r2
 507 01b0 31D0     		beq	.L75
 196:Drivers/STM32F4xx_HAL_Driver/Src/stm32f4xx_hal_dma_ex.c ****     __HAL_DMA_CLEAR_FLAG (hdma, __HAL_DMA_GET_HT_FLAG_INDEX(hdma));
 508              		.loc 1 196 5 discriminator 53 view .LVU151
 509 01b2 02F58062 		add	r2, r2, #1024
 510 01b6 9342     		cmp	r3, r2
 511 01b8 31D0     		beq	.L76
 196:Drivers/STM32F4xx_HAL_Driver/Src/stm32f4xx_hal_dma_ex.c ****     __HAL_DMA_CLEAR_FLAG (hdma, __HAL_DMA_GET_HT_FLAG_INDEX(hdma));
 512              		.loc 1 196 5 discriminator 55 view .LVU152
 513 01ba A2F56872 		sub	r2, r2, #928
 514 01be 9342     		cmp	r3, r2
 515 01c0 2FD0     		beq	.L77
 196:Drivers/STM32F4xx_HAL_Driver/Src/stm32f4xx_hal_dma_ex.c ****     __HAL_DMA_CLEAR_FLAG (hdma, __HAL_DMA_GET_HT_FLAG_INDEX(hdma));
 516              		.loc 1 196 5 discriminator 57 view .LVU153
 517 01c2 02F58062 		add	r2, r2, #1024
 518 01c6 9342     		cmp	r3, r2
 519 01c8 2DD0     		beq	.L78
 196:Drivers/STM32F4xx_HAL_Driver/Src/stm32f4xx_hal_dma_ex.c ****     __HAL_DMA_CLEAR_FLAG (hdma, __HAL_DMA_GET_HT_FLAG_INDEX(hdma));
 520              		.loc 1 196 5 discriminator 59 view .LVU154
 521 01ca A2F58962 		sub	r2, r2, #1096
 522 01ce 9342     		cmp	r3, r2
 523 01d0 2BD0     		beq	.L79
 196:Drivers/STM32F4xx_HAL_Driver/Src/stm32f4xx_hal_dma_ex.c ****     __HAL_DMA_CLEAR_FLAG (hdma, __HAL_DMA_GET_HT_FLAG_INDEX(hdma));
 524              		.loc 1 196 5 discriminator 61 view .LVU155
 525 01d2 02F58062 		add	r2, r2, #1024
 526 01d6 9342     		cmp	r3, r2
 527 01d8 2AD0     		beq	.L80
 196:Drivers/STM32F4xx_HAL_Driver/Src/stm32f4xx_hal_dma_ex.c ****     __HAL_DMA_CLEAR_FLAG (hdma, __HAL_DMA_GET_HT_FLAG_INDEX(hdma));
 528              		.loc 1 196 5 discriminator 63 view .LVU156
 529 01da A2F56872 		sub	r2, r2, #928
 530 01de 9342     		cmp	r3, r2
 531 01e0 29D0     		beq	.L81
 196:Drivers/STM32F4xx_HAL_Driver/Src/stm32f4xx_hal_dma_ex.c ****     __HAL_DMA_CLEAR_FLAG (hdma, __HAL_DMA_GET_HT_FLAG_INDEX(hdma));
ARM GAS  /tmp/ccWA14hl.s 			page 18


 532              		.loc 1 196 5 discriminator 65 view .LVU157
 533 01e2 02F58062 		add	r2, r2, #1024
 534 01e6 9342     		cmp	r3, r2
 535 01e8 28D0     		beq	.L82
 196:Drivers/STM32F4xx_HAL_Driver/Src/stm32f4xx_hal_dma_ex.c ****     __HAL_DMA_CLEAR_FLAG (hdma, __HAL_DMA_GET_HT_FLAG_INDEX(hdma));
 536              		.loc 1 196 5 discriminator 67 view .LVU158
 537 01ea A2F58962 		sub	r2, r2, #1096
 538 01ee 9342     		cmp	r3, r2
 539 01f0 27D0     		beq	.L83
 196:Drivers/STM32F4xx_HAL_Driver/Src/stm32f4xx_hal_dma_ex.c ****     __HAL_DMA_CLEAR_FLAG (hdma, __HAL_DMA_GET_HT_FLAG_INDEX(hdma));
 540              		.loc 1 196 5 discriminator 69 view .LVU159
 541 01f2 02F58062 		add	r2, r2, #1024
 542 01f6 9342     		cmp	r3, r2
 543 01f8 26D0     		beq	.L84
 196:Drivers/STM32F4xx_HAL_Driver/Src/stm32f4xx_hal_dma_ex.c ****     __HAL_DMA_CLEAR_FLAG (hdma, __HAL_DMA_GET_HT_FLAG_INDEX(hdma));
 544              		.loc 1 196 5 discriminator 71 view .LVU160
 545 01fa A2F56872 		sub	r2, r2, #928
 546 01fe 9342     		cmp	r3, r2
 547 0200 25D0     		beq	.L85
 196:Drivers/STM32F4xx_HAL_Driver/Src/stm32f4xx_hal_dma_ex.c ****     __HAL_DMA_CLEAR_FLAG (hdma, __HAL_DMA_GET_HT_FLAG_INDEX(hdma));
 548              		.loc 1 196 5 discriminator 73 view .LVU161
 549 0202 02F58062 		add	r2, r2, #1024
 550 0206 9342     		cmp	r3, r2
 551 0208 02D0     		beq	.L308
 196:Drivers/STM32F4xx_HAL_Driver/Src/stm32f4xx_hal_dma_ex.c ****     __HAL_DMA_CLEAR_FLAG (hdma, __HAL_DMA_GET_HT_FLAG_INDEX(hdma));
 552              		.loc 1 196 5 discriminator 76 view .LVU162
 553 020a 4FF00063 		mov	r3, #134217728
 554 020e 03E0     		b	.L24
 555              	.L308:
 196:Drivers/STM32F4xx_HAL_Driver/Src/stm32f4xx_hal_dma_ex.c ****     __HAL_DMA_CLEAR_FLAG (hdma, __HAL_DMA_GET_HT_FLAG_INDEX(hdma));
 556              		.loc 1 196 5 discriminator 75 view .LVU163
 557 0210 4FF40013 		mov	r3, #2097152
 558 0214 00E0     		b	.L24
 559              	.L75:
 196:Drivers/STM32F4xx_HAL_Driver/Src/stm32f4xx_hal_dma_ex.c ****     __HAL_DMA_CLEAR_FLAG (hdma, __HAL_DMA_GET_HT_FLAG_INDEX(hdma));
 560              		.loc 1 196 5 discriminator 54 view .LVU164
 561 0216 2023     		movs	r3, #32
 562              	.L24:
 196:Drivers/STM32F4xx_HAL_Driver/Src/stm32f4xx_hal_dma_ex.c ****     __HAL_DMA_CLEAR_FLAG (hdma, __HAL_DMA_GET_HT_FLAG_INDEX(hdma));
 563              		.loc 1 196 5 discriminator 100 view .LVU165
 564 0218 3B4A     		ldr	r2, .L327+4
 565 021a 9360     		str	r3, [r2, #8]
 566              	.LVL33:
 196:Drivers/STM32F4xx_HAL_Driver/Src/stm32f4xx_hal_dma_ex.c ****     __HAL_DMA_CLEAR_FLAG (hdma, __HAL_DMA_GET_HT_FLAG_INDEX(hdma));
 567              		.loc 1 196 5 discriminator 100 view .LVU166
 568 021c 64E7     		b	.L22
 569              	.LVL34:
 570              	.L76:
 196:Drivers/STM32F4xx_HAL_Driver/Src/stm32f4xx_hal_dma_ex.c ****     __HAL_DMA_CLEAR_FLAG (hdma, __HAL_DMA_GET_HT_FLAG_INDEX(hdma));
 571              		.loc 1 196 5 discriminator 56 view .LVU167
 572 021e 2023     		movs	r3, #32
 573 0220 FAE7     		b	.L24
 574              	.L77:
 196:Drivers/STM32F4xx_HAL_Driver/Src/stm32f4xx_hal_dma_ex.c ****     __HAL_DMA_CLEAR_FLAG (hdma, __HAL_DMA_GET_HT_FLAG_INDEX(hdma));
 575              		.loc 1 196 5 discriminator 58 view .LVU168
 576 0222 2023     		movs	r3, #32
 577 0224 F8E7     		b	.L24
ARM GAS  /tmp/ccWA14hl.s 			page 19


 578              	.L78:
 196:Drivers/STM32F4xx_HAL_Driver/Src/stm32f4xx_hal_dma_ex.c ****     __HAL_DMA_CLEAR_FLAG (hdma, __HAL_DMA_GET_HT_FLAG_INDEX(hdma));
 579              		.loc 1 196 5 discriminator 60 view .LVU169
 580 0226 2023     		movs	r3, #32
 581 0228 F6E7     		b	.L24
 582              	.L79:
 196:Drivers/STM32F4xx_HAL_Driver/Src/stm32f4xx_hal_dma_ex.c ****     __HAL_DMA_CLEAR_FLAG (hdma, __HAL_DMA_GET_HT_FLAG_INDEX(hdma));
 583              		.loc 1 196 5 discriminator 62 view .LVU170
 584 022a 4FF40063 		mov	r3, #2048
 585 022e F3E7     		b	.L24
 586              	.L80:
 196:Drivers/STM32F4xx_HAL_Driver/Src/stm32f4xx_hal_dma_ex.c ****     __HAL_DMA_CLEAR_FLAG (hdma, __HAL_DMA_GET_HT_FLAG_INDEX(hdma));
 587              		.loc 1 196 5 discriminator 64 view .LVU171
 588 0230 4FF40063 		mov	r3, #2048
 589 0234 F0E7     		b	.L24
 590              	.L81:
 196:Drivers/STM32F4xx_HAL_Driver/Src/stm32f4xx_hal_dma_ex.c ****     __HAL_DMA_CLEAR_FLAG (hdma, __HAL_DMA_GET_HT_FLAG_INDEX(hdma));
 591              		.loc 1 196 5 discriminator 66 view .LVU172
 592 0236 4FF40063 		mov	r3, #2048
 593 023a EDE7     		b	.L24
 594              	.L82:
 196:Drivers/STM32F4xx_HAL_Driver/Src/stm32f4xx_hal_dma_ex.c ****     __HAL_DMA_CLEAR_FLAG (hdma, __HAL_DMA_GET_HT_FLAG_INDEX(hdma));
 595              		.loc 1 196 5 discriminator 68 view .LVU173
 596 023c 4FF40063 		mov	r3, #2048
 597 0240 EAE7     		b	.L24
 598              	.L83:
 196:Drivers/STM32F4xx_HAL_Driver/Src/stm32f4xx_hal_dma_ex.c ****     __HAL_DMA_CLEAR_FLAG (hdma, __HAL_DMA_GET_HT_FLAG_INDEX(hdma));
 599              		.loc 1 196 5 discriminator 70 view .LVU174
 600 0242 4FF40013 		mov	r3, #2097152
 601 0246 E7E7     		b	.L24
 602              	.L84:
 196:Drivers/STM32F4xx_HAL_Driver/Src/stm32f4xx_hal_dma_ex.c ****     __HAL_DMA_CLEAR_FLAG (hdma, __HAL_DMA_GET_HT_FLAG_INDEX(hdma));
 603              		.loc 1 196 5 discriminator 72 view .LVU175
 604 0248 4FF40013 		mov	r3, #2097152
 605 024c E4E7     		b	.L24
 606              	.L85:
 196:Drivers/STM32F4xx_HAL_Driver/Src/stm32f4xx_hal_dma_ex.c ****     __HAL_DMA_CLEAR_FLAG (hdma, __HAL_DMA_GET_HT_FLAG_INDEX(hdma));
 607              		.loc 1 196 5 discriminator 74 view .LVU176
 608 024e 4FF40013 		mov	r3, #2097152
 609 0252 E1E7     		b	.L24
 610              	.L23:
 196:Drivers/STM32F4xx_HAL_Driver/Src/stm32f4xx_hal_dma_ex.c ****     __HAL_DMA_CLEAR_FLAG (hdma, __HAL_DMA_GET_HT_FLAG_INDEX(hdma));
 611              		.loc 1 196 5 discriminator 52 view .LVU177
 612 0254 2E4A     		ldr	r2, .L327+12
 613 0256 9342     		cmp	r3, r2
 614 0258 5ED9     		bls	.L25
 196:Drivers/STM32F4xx_HAL_Driver/Src/stm32f4xx_hal_dma_ex.c ****     __HAL_DMA_CLEAR_FLAG (hdma, __HAL_DMA_GET_HT_FLAG_INDEX(hdma));
 615              		.loc 1 196 5 discriminator 102 view .LVU178
 616 025a 483A     		subs	r2, r2, #72
 617 025c 9342     		cmp	r3, r2
 618 025e 31D0     		beq	.L87
 196:Drivers/STM32F4xx_HAL_Driver/Src/stm32f4xx_hal_dma_ex.c ****     __HAL_DMA_CLEAR_FLAG (hdma, __HAL_DMA_GET_HT_FLAG_INDEX(hdma));
 619              		.loc 1 196 5 discriminator 104 view .LVU179
 620 0260 02F58062 		add	r2, r2, #1024
 621 0264 9342     		cmp	r3, r2
 622 0266 31D0     		beq	.L88
 196:Drivers/STM32F4xx_HAL_Driver/Src/stm32f4xx_hal_dma_ex.c ****     __HAL_DMA_CLEAR_FLAG (hdma, __HAL_DMA_GET_HT_FLAG_INDEX(hdma));
ARM GAS  /tmp/ccWA14hl.s 			page 20


 623              		.loc 1 196 5 discriminator 106 view .LVU180
 624 0268 A2F56872 		sub	r2, r2, #928
 625 026c 9342     		cmp	r3, r2
 626 026e 2FD0     		beq	.L89
 196:Drivers/STM32F4xx_HAL_Driver/Src/stm32f4xx_hal_dma_ex.c ****     __HAL_DMA_CLEAR_FLAG (hdma, __HAL_DMA_GET_HT_FLAG_INDEX(hdma));
 627              		.loc 1 196 5 discriminator 108 view .LVU181
 628 0270 02F58062 		add	r2, r2, #1024
 629 0274 9342     		cmp	r3, r2
 630 0276 2DD0     		beq	.L90
 196:Drivers/STM32F4xx_HAL_Driver/Src/stm32f4xx_hal_dma_ex.c ****     __HAL_DMA_CLEAR_FLAG (hdma, __HAL_DMA_GET_HT_FLAG_INDEX(hdma));
 631              		.loc 1 196 5 discriminator 110 view .LVU182
 632 0278 A2F58962 		sub	r2, r2, #1096
 633 027c 9342     		cmp	r3, r2
 634 027e 2BD0     		beq	.L91
 196:Drivers/STM32F4xx_HAL_Driver/Src/stm32f4xx_hal_dma_ex.c ****     __HAL_DMA_CLEAR_FLAG (hdma, __HAL_DMA_GET_HT_FLAG_INDEX(hdma));
 635              		.loc 1 196 5 discriminator 112 view .LVU183
 636 0280 02F58062 		add	r2, r2, #1024
 637 0284 9342     		cmp	r3, r2
 638 0286 2AD0     		beq	.L92
 196:Drivers/STM32F4xx_HAL_Driver/Src/stm32f4xx_hal_dma_ex.c ****     __HAL_DMA_CLEAR_FLAG (hdma, __HAL_DMA_GET_HT_FLAG_INDEX(hdma));
 639              		.loc 1 196 5 discriminator 114 view .LVU184
 640 0288 A2F56872 		sub	r2, r2, #928
 641 028c 9342     		cmp	r3, r2
 642 028e 29D0     		beq	.L93
 196:Drivers/STM32F4xx_HAL_Driver/Src/stm32f4xx_hal_dma_ex.c ****     __HAL_DMA_CLEAR_FLAG (hdma, __HAL_DMA_GET_HT_FLAG_INDEX(hdma));
 643              		.loc 1 196 5 discriminator 116 view .LVU185
 644 0290 02F58062 		add	r2, r2, #1024
 645 0294 9342     		cmp	r3, r2
 646 0296 28D0     		beq	.L94
 196:Drivers/STM32F4xx_HAL_Driver/Src/stm32f4xx_hal_dma_ex.c ****     __HAL_DMA_CLEAR_FLAG (hdma, __HAL_DMA_GET_HT_FLAG_INDEX(hdma));
 647              		.loc 1 196 5 discriminator 118 view .LVU186
 648 0298 A2F58962 		sub	r2, r2, #1096
 649 029c 9342     		cmp	r3, r2
 650 029e 27D0     		beq	.L95
 196:Drivers/STM32F4xx_HAL_Driver/Src/stm32f4xx_hal_dma_ex.c ****     __HAL_DMA_CLEAR_FLAG (hdma, __HAL_DMA_GET_HT_FLAG_INDEX(hdma));
 651              		.loc 1 196 5 discriminator 120 view .LVU187
 652 02a0 02F58062 		add	r2, r2, #1024
 653 02a4 9342     		cmp	r3, r2
 654 02a6 26D0     		beq	.L96
 196:Drivers/STM32F4xx_HAL_Driver/Src/stm32f4xx_hal_dma_ex.c ****     __HAL_DMA_CLEAR_FLAG (hdma, __HAL_DMA_GET_HT_FLAG_INDEX(hdma));
 655              		.loc 1 196 5 discriminator 122 view .LVU188
 656 02a8 A2F56872 		sub	r2, r2, #928
 657 02ac 9342     		cmp	r3, r2
 658 02ae 25D0     		beq	.L97
 196:Drivers/STM32F4xx_HAL_Driver/Src/stm32f4xx_hal_dma_ex.c ****     __HAL_DMA_CLEAR_FLAG (hdma, __HAL_DMA_GET_HT_FLAG_INDEX(hdma));
 659              		.loc 1 196 5 discriminator 124 view .LVU189
 660 02b0 02F58062 		add	r2, r2, #1024
 661 02b4 9342     		cmp	r3, r2
 662 02b6 02D0     		beq	.L309
 196:Drivers/STM32F4xx_HAL_Driver/Src/stm32f4xx_hal_dma_ex.c ****     __HAL_DMA_CLEAR_FLAG (hdma, __HAL_DMA_GET_HT_FLAG_INDEX(hdma));
 663              		.loc 1 196 5 discriminator 127 view .LVU190
 664 02b8 4FF00063 		mov	r3, #134217728
 665 02bc 03E0     		b	.L26
 666              	.L309:
 196:Drivers/STM32F4xx_HAL_Driver/Src/stm32f4xx_hal_dma_ex.c ****     __HAL_DMA_CLEAR_FLAG (hdma, __HAL_DMA_GET_HT_FLAG_INDEX(hdma));
 667              		.loc 1 196 5 discriminator 126 view .LVU191
 668 02be 4FF40013 		mov	r3, #2097152
ARM GAS  /tmp/ccWA14hl.s 			page 21


 669 02c2 00E0     		b	.L26
 670              	.L87:
 196:Drivers/STM32F4xx_HAL_Driver/Src/stm32f4xx_hal_dma_ex.c ****     __HAL_DMA_CLEAR_FLAG (hdma, __HAL_DMA_GET_HT_FLAG_INDEX(hdma));
 671              		.loc 1 196 5 discriminator 105 view .LVU192
 672 02c4 2023     		movs	r3, #32
 673              	.L26:
 196:Drivers/STM32F4xx_HAL_Driver/Src/stm32f4xx_hal_dma_ex.c ****     __HAL_DMA_CLEAR_FLAG (hdma, __HAL_DMA_GET_HT_FLAG_INDEX(hdma));
 674              		.loc 1 196 5 discriminator 151 view .LVU193
 675 02c6 134A     		ldr	r2, .L327+16
 676 02c8 D360     		str	r3, [r2, #12]
 677              	.LVL35:
 196:Drivers/STM32F4xx_HAL_Driver/Src/stm32f4xx_hal_dma_ex.c ****     __HAL_DMA_CLEAR_FLAG (hdma, __HAL_DMA_GET_HT_FLAG_INDEX(hdma));
 678              		.loc 1 196 5 discriminator 151 view .LVU194
 679 02ca 0DE7     		b	.L22
 680              	.LVL36:
 681              	.L88:
 196:Drivers/STM32F4xx_HAL_Driver/Src/stm32f4xx_hal_dma_ex.c ****     __HAL_DMA_CLEAR_FLAG (hdma, __HAL_DMA_GET_HT_FLAG_INDEX(hdma));
 682              		.loc 1 196 5 discriminator 107 view .LVU195
 683 02cc 2023     		movs	r3, #32
 684 02ce FAE7     		b	.L26
 685              	.L89:
 196:Drivers/STM32F4xx_HAL_Driver/Src/stm32f4xx_hal_dma_ex.c ****     __HAL_DMA_CLEAR_FLAG (hdma, __HAL_DMA_GET_HT_FLAG_INDEX(hdma));
 686              		.loc 1 196 5 discriminator 109 view .LVU196
 687 02d0 2023     		movs	r3, #32
 688 02d2 F8E7     		b	.L26
 689              	.L90:
 196:Drivers/STM32F4xx_HAL_Driver/Src/stm32f4xx_hal_dma_ex.c ****     __HAL_DMA_CLEAR_FLAG (hdma, __HAL_DMA_GET_HT_FLAG_INDEX(hdma));
 690              		.loc 1 196 5 discriminator 111 view .LVU197
 691 02d4 2023     		movs	r3, #32
 692 02d6 F6E7     		b	.L26
 693              	.L91:
 196:Drivers/STM32F4xx_HAL_Driver/Src/stm32f4xx_hal_dma_ex.c ****     __HAL_DMA_CLEAR_FLAG (hdma, __HAL_DMA_GET_HT_FLAG_INDEX(hdma));
 694              		.loc 1 196 5 discriminator 113 view .LVU198
 695 02d8 4FF40063 		mov	r3, #2048
 696 02dc F3E7     		b	.L26
 697              	.L92:
 196:Drivers/STM32F4xx_HAL_Driver/Src/stm32f4xx_hal_dma_ex.c ****     __HAL_DMA_CLEAR_FLAG (hdma, __HAL_DMA_GET_HT_FLAG_INDEX(hdma));
 698              		.loc 1 196 5 discriminator 115 view .LVU199
 699 02de 4FF40063 		mov	r3, #2048
 700 02e2 F0E7     		b	.L26
 701              	.L93:
 196:Drivers/STM32F4xx_HAL_Driver/Src/stm32f4xx_hal_dma_ex.c ****     __HAL_DMA_CLEAR_FLAG (hdma, __HAL_DMA_GET_HT_FLAG_INDEX(hdma));
 702              		.loc 1 196 5 discriminator 117 view .LVU200
 703 02e4 4FF40063 		mov	r3, #2048
 704 02e8 EDE7     		b	.L26
 705              	.L94:
 196:Drivers/STM32F4xx_HAL_Driver/Src/stm32f4xx_hal_dma_ex.c ****     __HAL_DMA_CLEAR_FLAG (hdma, __HAL_DMA_GET_HT_FLAG_INDEX(hdma));
 706              		.loc 1 196 5 discriminator 119 view .LVU201
 707 02ea 4FF40063 		mov	r3, #2048
 708 02ee EAE7     		b	.L26
 709              	.L95:
 196:Drivers/STM32F4xx_HAL_Driver/Src/stm32f4xx_hal_dma_ex.c ****     __HAL_DMA_CLEAR_FLAG (hdma, __HAL_DMA_GET_HT_FLAG_INDEX(hdma));
 710              		.loc 1 196 5 discriminator 121 view .LVU202
 711 02f0 4FF40013 		mov	r3, #2097152
 712 02f4 E7E7     		b	.L26
 713              	.L96:
 196:Drivers/STM32F4xx_HAL_Driver/Src/stm32f4xx_hal_dma_ex.c ****     __HAL_DMA_CLEAR_FLAG (hdma, __HAL_DMA_GET_HT_FLAG_INDEX(hdma));
ARM GAS  /tmp/ccWA14hl.s 			page 22


 714              		.loc 1 196 5 discriminator 123 view .LVU203
 715 02f6 4FF40013 		mov	r3, #2097152
 716 02fa E4E7     		b	.L26
 717              	.L97:
 196:Drivers/STM32F4xx_HAL_Driver/Src/stm32f4xx_hal_dma_ex.c ****     __HAL_DMA_CLEAR_FLAG (hdma, __HAL_DMA_GET_HT_FLAG_INDEX(hdma));
 718              		.loc 1 196 5 discriminator 125 view .LVU204
 719 02fc 4FF40013 		mov	r3, #2097152
 720 0300 E1E7     		b	.L26
 721              	.L328:
 722 0302 00BF     		.align	2
 723              	.L327:
 724 0304 58640240 		.word	1073898584
 725 0308 00640240 		.word	1073898496
 726 030c B8600240 		.word	1073897656
 727 0310 58600240 		.word	1073897560
 728 0314 00600240 		.word	1073897472
 729              	.L25:
 196:Drivers/STM32F4xx_HAL_Driver/Src/stm32f4xx_hal_dma_ex.c ****     __HAL_DMA_CLEAR_FLAG (hdma, __HAL_DMA_GET_HT_FLAG_INDEX(hdma));
 730              		.loc 1 196 5 discriminator 103 view .LVU205
 731 0318 B14A     		ldr	r2, .L329
 732 031a 9342     		cmp	r3, r2
 733 031c 31D0     		beq	.L99
 196:Drivers/STM32F4xx_HAL_Driver/Src/stm32f4xx_hal_dma_ex.c ****     __HAL_DMA_CLEAR_FLAG (hdma, __HAL_DMA_GET_HT_FLAG_INDEX(hdma));
 734              		.loc 1 196 5 discriminator 153 view .LVU206
 735 031e 02F58062 		add	r2, r2, #1024
 736 0322 9342     		cmp	r3, r2
 737 0324 31D0     		beq	.L100
 196:Drivers/STM32F4xx_HAL_Driver/Src/stm32f4xx_hal_dma_ex.c ****     __HAL_DMA_CLEAR_FLAG (hdma, __HAL_DMA_GET_HT_FLAG_INDEX(hdma));
 738              		.loc 1 196 5 discriminator 155 view .LVU207
 739 0326 A2F56872 		sub	r2, r2, #928
 740 032a 9342     		cmp	r3, r2
 741 032c 2FD0     		beq	.L101
 196:Drivers/STM32F4xx_HAL_Driver/Src/stm32f4xx_hal_dma_ex.c ****     __HAL_DMA_CLEAR_FLAG (hdma, __HAL_DMA_GET_HT_FLAG_INDEX(hdma));
 742              		.loc 1 196 5 discriminator 157 view .LVU208
 743 032e 02F58062 		add	r2, r2, #1024
 744 0332 9342     		cmp	r3, r2
 745 0334 2DD0     		beq	.L102
 196:Drivers/STM32F4xx_HAL_Driver/Src/stm32f4xx_hal_dma_ex.c ****     __HAL_DMA_CLEAR_FLAG (hdma, __HAL_DMA_GET_HT_FLAG_INDEX(hdma));
 746              		.loc 1 196 5 discriminator 159 view .LVU209
 747 0336 A2F58962 		sub	r2, r2, #1096
 748 033a 9342     		cmp	r3, r2
 749 033c 2BD0     		beq	.L103
 196:Drivers/STM32F4xx_HAL_Driver/Src/stm32f4xx_hal_dma_ex.c ****     __HAL_DMA_CLEAR_FLAG (hdma, __HAL_DMA_GET_HT_FLAG_INDEX(hdma));
 750              		.loc 1 196 5 discriminator 161 view .LVU210
 751 033e 02F58062 		add	r2, r2, #1024
 752 0342 9342     		cmp	r3, r2
 753 0344 2AD0     		beq	.L104
 196:Drivers/STM32F4xx_HAL_Driver/Src/stm32f4xx_hal_dma_ex.c ****     __HAL_DMA_CLEAR_FLAG (hdma, __HAL_DMA_GET_HT_FLAG_INDEX(hdma));
 754              		.loc 1 196 5 discriminator 163 view .LVU211
 755 0346 A2F56872 		sub	r2, r2, #928
 756 034a 9342     		cmp	r3, r2
 757 034c 29D0     		beq	.L105
 196:Drivers/STM32F4xx_HAL_Driver/Src/stm32f4xx_hal_dma_ex.c ****     __HAL_DMA_CLEAR_FLAG (hdma, __HAL_DMA_GET_HT_FLAG_INDEX(hdma));
 758              		.loc 1 196 5 discriminator 165 view .LVU212
 759 034e 02F58062 		add	r2, r2, #1024
 760 0352 9342     		cmp	r3, r2
 761 0354 28D0     		beq	.L106
ARM GAS  /tmp/ccWA14hl.s 			page 23


 196:Drivers/STM32F4xx_HAL_Driver/Src/stm32f4xx_hal_dma_ex.c ****     __HAL_DMA_CLEAR_FLAG (hdma, __HAL_DMA_GET_HT_FLAG_INDEX(hdma));
 762              		.loc 1 196 5 discriminator 167 view .LVU213
 763 0356 A2F58962 		sub	r2, r2, #1096
 764 035a 9342     		cmp	r3, r2
 765 035c 27D0     		beq	.L107
 196:Drivers/STM32F4xx_HAL_Driver/Src/stm32f4xx_hal_dma_ex.c ****     __HAL_DMA_CLEAR_FLAG (hdma, __HAL_DMA_GET_HT_FLAG_INDEX(hdma));
 766              		.loc 1 196 5 discriminator 169 view .LVU214
 767 035e 02F58062 		add	r2, r2, #1024
 768 0362 9342     		cmp	r3, r2
 769 0364 26D0     		beq	.L108
 196:Drivers/STM32F4xx_HAL_Driver/Src/stm32f4xx_hal_dma_ex.c ****     __HAL_DMA_CLEAR_FLAG (hdma, __HAL_DMA_GET_HT_FLAG_INDEX(hdma));
 770              		.loc 1 196 5 discriminator 171 view .LVU215
 771 0366 A2F56872 		sub	r2, r2, #928
 772 036a 9342     		cmp	r3, r2
 773 036c 25D0     		beq	.L109
 196:Drivers/STM32F4xx_HAL_Driver/Src/stm32f4xx_hal_dma_ex.c ****     __HAL_DMA_CLEAR_FLAG (hdma, __HAL_DMA_GET_HT_FLAG_INDEX(hdma));
 774              		.loc 1 196 5 discriminator 173 view .LVU216
 775 036e 02F58062 		add	r2, r2, #1024
 776 0372 9342     		cmp	r3, r2
 777 0374 02D0     		beq	.L310
 196:Drivers/STM32F4xx_HAL_Driver/Src/stm32f4xx_hal_dma_ex.c ****     __HAL_DMA_CLEAR_FLAG (hdma, __HAL_DMA_GET_HT_FLAG_INDEX(hdma));
 778              		.loc 1 196 5 discriminator 176 view .LVU217
 779 0376 4FF00063 		mov	r3, #134217728
 780 037a 03E0     		b	.L27
 781              	.L310:
 196:Drivers/STM32F4xx_HAL_Driver/Src/stm32f4xx_hal_dma_ex.c ****     __HAL_DMA_CLEAR_FLAG (hdma, __HAL_DMA_GET_HT_FLAG_INDEX(hdma));
 782              		.loc 1 196 5 discriminator 175 view .LVU218
 783 037c 4FF40013 		mov	r3, #2097152
 784 0380 00E0     		b	.L27
 785              	.L99:
 196:Drivers/STM32F4xx_HAL_Driver/Src/stm32f4xx_hal_dma_ex.c ****     __HAL_DMA_CLEAR_FLAG (hdma, __HAL_DMA_GET_HT_FLAG_INDEX(hdma));
 786              		.loc 1 196 5 discriminator 154 view .LVU219
 787 0382 2023     		movs	r3, #32
 788              	.L27:
 196:Drivers/STM32F4xx_HAL_Driver/Src/stm32f4xx_hal_dma_ex.c ****     __HAL_DMA_CLEAR_FLAG (hdma, __HAL_DMA_GET_HT_FLAG_INDEX(hdma));
 789              		.loc 1 196 5 discriminator 200 view .LVU220
 790 0384 974A     		ldr	r2, .L329+4
 791 0386 9360     		str	r3, [r2, #8]
 792              	.LVL37:
 196:Drivers/STM32F4xx_HAL_Driver/Src/stm32f4xx_hal_dma_ex.c ****     __HAL_DMA_CLEAR_FLAG (hdma, __HAL_DMA_GET_HT_FLAG_INDEX(hdma));
 793              		.loc 1 196 5 discriminator 200 view .LVU221
 794 0388 AEE6     		b	.L22
 795              	.LVL38:
 796              	.L100:
 196:Drivers/STM32F4xx_HAL_Driver/Src/stm32f4xx_hal_dma_ex.c ****     __HAL_DMA_CLEAR_FLAG (hdma, __HAL_DMA_GET_HT_FLAG_INDEX(hdma));
 797              		.loc 1 196 5 discriminator 156 view .LVU222
 798 038a 2023     		movs	r3, #32
 799 038c FAE7     		b	.L27
 800              	.L101:
 196:Drivers/STM32F4xx_HAL_Driver/Src/stm32f4xx_hal_dma_ex.c ****     __HAL_DMA_CLEAR_FLAG (hdma, __HAL_DMA_GET_HT_FLAG_INDEX(hdma));
 801              		.loc 1 196 5 discriminator 158 view .LVU223
 802 038e 2023     		movs	r3, #32
 803 0390 F8E7     		b	.L27
 804              	.L102:
 196:Drivers/STM32F4xx_HAL_Driver/Src/stm32f4xx_hal_dma_ex.c ****     __HAL_DMA_CLEAR_FLAG (hdma, __HAL_DMA_GET_HT_FLAG_INDEX(hdma));
 805              		.loc 1 196 5 discriminator 160 view .LVU224
 806 0392 2023     		movs	r3, #32
ARM GAS  /tmp/ccWA14hl.s 			page 24


 807 0394 F6E7     		b	.L27
 808              	.L103:
 196:Drivers/STM32F4xx_HAL_Driver/Src/stm32f4xx_hal_dma_ex.c ****     __HAL_DMA_CLEAR_FLAG (hdma, __HAL_DMA_GET_HT_FLAG_INDEX(hdma));
 809              		.loc 1 196 5 discriminator 162 view .LVU225
 810 0396 4FF40063 		mov	r3, #2048
 811 039a F3E7     		b	.L27
 812              	.L104:
 196:Drivers/STM32F4xx_HAL_Driver/Src/stm32f4xx_hal_dma_ex.c ****     __HAL_DMA_CLEAR_FLAG (hdma, __HAL_DMA_GET_HT_FLAG_INDEX(hdma));
 813              		.loc 1 196 5 discriminator 164 view .LVU226
 814 039c 4FF40063 		mov	r3, #2048
 815 03a0 F0E7     		b	.L27
 816              	.L105:
 196:Drivers/STM32F4xx_HAL_Driver/Src/stm32f4xx_hal_dma_ex.c ****     __HAL_DMA_CLEAR_FLAG (hdma, __HAL_DMA_GET_HT_FLAG_INDEX(hdma));
 817              		.loc 1 196 5 discriminator 166 view .LVU227
 818 03a2 4FF40063 		mov	r3, #2048
 819 03a6 EDE7     		b	.L27
 820              	.L106:
 196:Drivers/STM32F4xx_HAL_Driver/Src/stm32f4xx_hal_dma_ex.c ****     __HAL_DMA_CLEAR_FLAG (hdma, __HAL_DMA_GET_HT_FLAG_INDEX(hdma));
 821              		.loc 1 196 5 discriminator 168 view .LVU228
 822 03a8 4FF40063 		mov	r3, #2048
 823 03ac EAE7     		b	.L27
 824              	.L107:
 196:Drivers/STM32F4xx_HAL_Driver/Src/stm32f4xx_hal_dma_ex.c ****     __HAL_DMA_CLEAR_FLAG (hdma, __HAL_DMA_GET_HT_FLAG_INDEX(hdma));
 825              		.loc 1 196 5 discriminator 170 view .LVU229
 826 03ae 4FF40013 		mov	r3, #2097152
 827 03b2 E7E7     		b	.L27
 828              	.L108:
 196:Drivers/STM32F4xx_HAL_Driver/Src/stm32f4xx_hal_dma_ex.c ****     __HAL_DMA_CLEAR_FLAG (hdma, __HAL_DMA_GET_HT_FLAG_INDEX(hdma));
 829              		.loc 1 196 5 discriminator 172 view .LVU230
 830 03b4 4FF40013 		mov	r3, #2097152
 831 03b8 E4E7     		b	.L27
 832              	.L109:
 196:Drivers/STM32F4xx_HAL_Driver/Src/stm32f4xx_hal_dma_ex.c ****     __HAL_DMA_CLEAR_FLAG (hdma, __HAL_DMA_GET_HT_FLAG_INDEX(hdma));
 833              		.loc 1 196 5 discriminator 174 view .LVU231
 834 03ba 4FF40013 		mov	r3, #2097152
 835 03be E1E7     		b	.L27
 836              	.LVL39:
 837              	.L307:
 197:Drivers/STM32F4xx_HAL_Driver/Src/stm32f4xx_hal_dma_ex.c ****     __HAL_DMA_CLEAR_FLAG (hdma, __HAL_DMA_GET_TE_FLAG_INDEX(hdma));
 838              		.loc 1 197 5 discriminator 25 view .LVU232
 839 03c0 4FF48012 		mov	r2, #1048576
 840 03c4 00E0     		b	.L29
 841              	.L111:
 197:Drivers/STM32F4xx_HAL_Driver/Src/stm32f4xx_hal_dma_ex.c ****     __HAL_DMA_CLEAR_FLAG (hdma, __HAL_DMA_GET_TE_FLAG_INDEX(hdma));
 842              		.loc 1 197 5 discriminator 4 view .LVU233
 843 03c6 1022     		movs	r2, #16
 844              	.L29:
 197:Drivers/STM32F4xx_HAL_Driver/Src/stm32f4xx_hal_dma_ex.c ****     __HAL_DMA_CLEAR_FLAG (hdma, __HAL_DMA_GET_TE_FLAG_INDEX(hdma));
 845              		.loc 1 197 5 discriminator 50 view .LVU234
 846 03c8 874B     		ldr	r3, .L329+8
 847 03ca DA60     		str	r2, [r3, #12]
 848              	.L30:
 198:Drivers/STM32F4xx_HAL_Driver/Src/stm32f4xx_hal_dma_ex.c ****     __HAL_DMA_CLEAR_FLAG (hdma, __HAL_DMA_GET_DME_FLAG_INDEX(hdma));
 849              		.loc 1 198 5 is_stmt 1 view .LVU235
 850 03cc 2368     		ldr	r3, [r4]
 851 03ce 874A     		ldr	r2, .L329+12
 852 03d0 9342     		cmp	r3, r2
ARM GAS  /tmp/ccWA14hl.s 			page 25


 853 03d2 40F2CD81 		bls	.L36
 198:Drivers/STM32F4xx_HAL_Driver/Src/stm32f4xx_hal_dma_ex.c ****     __HAL_DMA_CLEAR_FLAG (hdma, __HAL_DMA_GET_DME_FLAG_INDEX(hdma));
 854              		.loc 1 198 5 is_stmt 0 discriminator 1 view .LVU236
 855 03d6 A2F58962 		sub	r2, r2, #1096
 856 03da 9342     		cmp	r3, r2
 857 03dc 00F06681 		beq	.L159
 198:Drivers/STM32F4xx_HAL_Driver/Src/stm32f4xx_hal_dma_ex.c ****     __HAL_DMA_CLEAR_FLAG (hdma, __HAL_DMA_GET_DME_FLAG_INDEX(hdma));
 858              		.loc 1 198 5 discriminator 3 view .LVU237
 859 03e0 02F58062 		add	r2, r2, #1024
 860 03e4 9342     		cmp	r3, r2
 861 03e6 00F0A881 		beq	.L160
 198:Drivers/STM32F4xx_HAL_Driver/Src/stm32f4xx_hal_dma_ex.c ****     __HAL_DMA_CLEAR_FLAG (hdma, __HAL_DMA_GET_DME_FLAG_INDEX(hdma));
 862              		.loc 1 198 5 discriminator 5 view .LVU238
 863 03ea A2F56872 		sub	r2, r2, #928
 864 03ee 9342     		cmp	r3, r2
 865 03f0 00F0A581 		beq	.L161
 198:Drivers/STM32F4xx_HAL_Driver/Src/stm32f4xx_hal_dma_ex.c ****     __HAL_DMA_CLEAR_FLAG (hdma, __HAL_DMA_GET_DME_FLAG_INDEX(hdma));
 866              		.loc 1 198 5 discriminator 7 view .LVU239
 867 03f4 02F58062 		add	r2, r2, #1024
 868 03f8 9342     		cmp	r3, r2
 869 03fa 00F0A281 		beq	.L162
 198:Drivers/STM32F4xx_HAL_Driver/Src/stm32f4xx_hal_dma_ex.c ****     __HAL_DMA_CLEAR_FLAG (hdma, __HAL_DMA_GET_DME_FLAG_INDEX(hdma));
 870              		.loc 1 198 5 discriminator 9 view .LVU240
 871 03fe A2F58962 		sub	r2, r2, #1096
 872 0402 9342     		cmp	r3, r2
 873 0404 00F09F81 		beq	.L163
 198:Drivers/STM32F4xx_HAL_Driver/Src/stm32f4xx_hal_dma_ex.c ****     __HAL_DMA_CLEAR_FLAG (hdma, __HAL_DMA_GET_DME_FLAG_INDEX(hdma));
 874              		.loc 1 198 5 discriminator 11 view .LVU241
 875 0408 02F58062 		add	r2, r2, #1024
 876 040c 9342     		cmp	r3, r2
 877 040e 00F09D81 		beq	.L164
 198:Drivers/STM32F4xx_HAL_Driver/Src/stm32f4xx_hal_dma_ex.c ****     __HAL_DMA_CLEAR_FLAG (hdma, __HAL_DMA_GET_DME_FLAG_INDEX(hdma));
 878              		.loc 1 198 5 discriminator 13 view .LVU242
 879 0412 A2F56872 		sub	r2, r2, #928
 880 0416 9342     		cmp	r3, r2
 881 0418 00F09B81 		beq	.L165
 198:Drivers/STM32F4xx_HAL_Driver/Src/stm32f4xx_hal_dma_ex.c ****     __HAL_DMA_CLEAR_FLAG (hdma, __HAL_DMA_GET_DME_FLAG_INDEX(hdma));
 882              		.loc 1 198 5 discriminator 15 view .LVU243
 883 041c 02F58062 		add	r2, r2, #1024
 884 0420 9342     		cmp	r3, r2
 885 0422 00F09981 		beq	.L166
 198:Drivers/STM32F4xx_HAL_Driver/Src/stm32f4xx_hal_dma_ex.c ****     __HAL_DMA_CLEAR_FLAG (hdma, __HAL_DMA_GET_DME_FLAG_INDEX(hdma));
 886              		.loc 1 198 5 discriminator 17 view .LVU244
 887 0426 A2F58962 		sub	r2, r2, #1096
 888 042a 9342     		cmp	r3, r2
 889 042c 00F09781 		beq	.L167
 198:Drivers/STM32F4xx_HAL_Driver/Src/stm32f4xx_hal_dma_ex.c ****     __HAL_DMA_CLEAR_FLAG (hdma, __HAL_DMA_GET_DME_FLAG_INDEX(hdma));
 890              		.loc 1 198 5 discriminator 19 view .LVU245
 891 0430 02F58062 		add	r2, r2, #1024
 892 0434 9342     		cmp	r3, r2
 893 0436 00F09581 		beq	.L168
 198:Drivers/STM32F4xx_HAL_Driver/Src/stm32f4xx_hal_dma_ex.c ****     __HAL_DMA_CLEAR_FLAG (hdma, __HAL_DMA_GET_DME_FLAG_INDEX(hdma));
 894              		.loc 1 198 5 discriminator 21 view .LVU246
 895 043a A2F56872 		sub	r2, r2, #928
 896 043e 9342     		cmp	r3, r2
 897 0440 00F09381 		beq	.L169
 198:Drivers/STM32F4xx_HAL_Driver/Src/stm32f4xx_hal_dma_ex.c ****     __HAL_DMA_CLEAR_FLAG (hdma, __HAL_DMA_GET_DME_FLAG_INDEX(hdma));
ARM GAS  /tmp/ccWA14hl.s 			page 26


 898              		.loc 1 198 5 discriminator 23 view .LVU247
 899 0444 02F58062 		add	r2, r2, #1024
 900 0448 9342     		cmp	r3, r2
 901 044a 00F02C81 		beq	.L311
 198:Drivers/STM32F4xx_HAL_Driver/Src/stm32f4xx_hal_dma_ex.c ****     __HAL_DMA_CLEAR_FLAG (hdma, __HAL_DMA_GET_DME_FLAG_INDEX(hdma));
 902              		.loc 1 198 5 discriminator 26 view .LVU248
 903 044e 4FF00072 		mov	r2, #33554432
 904 0452 2CE1     		b	.L37
 905              	.L112:
 197:Drivers/STM32F4xx_HAL_Driver/Src/stm32f4xx_hal_dma_ex.c ****     __HAL_DMA_CLEAR_FLAG (hdma, __HAL_DMA_GET_TE_FLAG_INDEX(hdma));
 906              		.loc 1 197 5 discriminator 6 view .LVU249
 907 0454 1022     		movs	r2, #16
 908 0456 B7E7     		b	.L29
 909              	.L113:
 197:Drivers/STM32F4xx_HAL_Driver/Src/stm32f4xx_hal_dma_ex.c ****     __HAL_DMA_CLEAR_FLAG (hdma, __HAL_DMA_GET_TE_FLAG_INDEX(hdma));
 910              		.loc 1 197 5 discriminator 8 view .LVU250
 911 0458 1022     		movs	r2, #16
 912 045a B5E7     		b	.L29
 913              	.L114:
 197:Drivers/STM32F4xx_HAL_Driver/Src/stm32f4xx_hal_dma_ex.c ****     __HAL_DMA_CLEAR_FLAG (hdma, __HAL_DMA_GET_TE_FLAG_INDEX(hdma));
 914              		.loc 1 197 5 discriminator 10 view .LVU251
 915 045c 1022     		movs	r2, #16
 916 045e B3E7     		b	.L29
 917              	.L115:
 197:Drivers/STM32F4xx_HAL_Driver/Src/stm32f4xx_hal_dma_ex.c ****     __HAL_DMA_CLEAR_FLAG (hdma, __HAL_DMA_GET_TE_FLAG_INDEX(hdma));
 918              		.loc 1 197 5 discriminator 12 view .LVU252
 919 0460 4FF48062 		mov	r2, #1024
 920 0464 B0E7     		b	.L29
 921              	.L116:
 197:Drivers/STM32F4xx_HAL_Driver/Src/stm32f4xx_hal_dma_ex.c ****     __HAL_DMA_CLEAR_FLAG (hdma, __HAL_DMA_GET_TE_FLAG_INDEX(hdma));
 922              		.loc 1 197 5 discriminator 14 view .LVU253
 923 0466 4FF48062 		mov	r2, #1024
 924 046a ADE7     		b	.L29
 925              	.L117:
 197:Drivers/STM32F4xx_HAL_Driver/Src/stm32f4xx_hal_dma_ex.c ****     __HAL_DMA_CLEAR_FLAG (hdma, __HAL_DMA_GET_TE_FLAG_INDEX(hdma));
 926              		.loc 1 197 5 discriminator 16 view .LVU254
 927 046c 4FF48062 		mov	r2, #1024
 928 0470 AAE7     		b	.L29
 929              	.L118:
 197:Drivers/STM32F4xx_HAL_Driver/Src/stm32f4xx_hal_dma_ex.c ****     __HAL_DMA_CLEAR_FLAG (hdma, __HAL_DMA_GET_TE_FLAG_INDEX(hdma));
 930              		.loc 1 197 5 discriminator 18 view .LVU255
 931 0472 4FF48062 		mov	r2, #1024
 932 0476 A7E7     		b	.L29
 933              	.L119:
 197:Drivers/STM32F4xx_HAL_Driver/Src/stm32f4xx_hal_dma_ex.c ****     __HAL_DMA_CLEAR_FLAG (hdma, __HAL_DMA_GET_TE_FLAG_INDEX(hdma));
 934              		.loc 1 197 5 discriminator 20 view .LVU256
 935 0478 4FF48012 		mov	r2, #1048576
 936 047c A4E7     		b	.L29
 937              	.L120:
 197:Drivers/STM32F4xx_HAL_Driver/Src/stm32f4xx_hal_dma_ex.c ****     __HAL_DMA_CLEAR_FLAG (hdma, __HAL_DMA_GET_TE_FLAG_INDEX(hdma));
 938              		.loc 1 197 5 discriminator 22 view .LVU257
 939 047e 4FF48012 		mov	r2, #1048576
 940 0482 A1E7     		b	.L29
 941              	.L121:
 197:Drivers/STM32F4xx_HAL_Driver/Src/stm32f4xx_hal_dma_ex.c ****     __HAL_DMA_CLEAR_FLAG (hdma, __HAL_DMA_GET_TE_FLAG_INDEX(hdma));
 942              		.loc 1 197 5 discriminator 24 view .LVU258
 943 0484 4FF48012 		mov	r2, #1048576
ARM GAS  /tmp/ccWA14hl.s 			page 27


 944 0488 9EE7     		b	.L29
 945              	.L28:
 197:Drivers/STM32F4xx_HAL_Driver/Src/stm32f4xx_hal_dma_ex.c ****     __HAL_DMA_CLEAR_FLAG (hdma, __HAL_DMA_GET_TE_FLAG_INDEX(hdma));
 946              		.loc 1 197 5 discriminator 2 view .LVU259
 947 048a 594A     		ldr	r2, .L329+16
 948 048c 9342     		cmp	r3, r2
 949 048e 53D9     		bls	.L31
 197:Drivers/STM32F4xx_HAL_Driver/Src/stm32f4xx_hal_dma_ex.c ****     __HAL_DMA_CLEAR_FLAG (hdma, __HAL_DMA_GET_TE_FLAG_INDEX(hdma));
 950              		.loc 1 197 5 discriminator 51 view .LVU260
 951 0490 A83A     		subs	r2, r2, #168
 952 0492 9342     		cmp	r3, r2
 953 0494 31D0     		beq	.L123
 197:Drivers/STM32F4xx_HAL_Driver/Src/stm32f4xx_hal_dma_ex.c ****     __HAL_DMA_CLEAR_FLAG (hdma, __HAL_DMA_GET_TE_FLAG_INDEX(hdma));
 954              		.loc 1 197 5 discriminator 53 view .LVU261
 955 0496 02F58062 		add	r2, r2, #1024
 956 049a 9342     		cmp	r3, r2
 957 049c 31D0     		beq	.L124
 197:Drivers/STM32F4xx_HAL_Driver/Src/stm32f4xx_hal_dma_ex.c ****     __HAL_DMA_CLEAR_FLAG (hdma, __HAL_DMA_GET_TE_FLAG_INDEX(hdma));
 958              		.loc 1 197 5 discriminator 55 view .LVU262
 959 049e A2F56872 		sub	r2, r2, #928
 960 04a2 9342     		cmp	r3, r2
 961 04a4 2FD0     		beq	.L125
 197:Drivers/STM32F4xx_HAL_Driver/Src/stm32f4xx_hal_dma_ex.c ****     __HAL_DMA_CLEAR_FLAG (hdma, __HAL_DMA_GET_TE_FLAG_INDEX(hdma));
 962              		.loc 1 197 5 discriminator 57 view .LVU263
 963 04a6 02F58062 		add	r2, r2, #1024
 964 04aa 9342     		cmp	r3, r2
 965 04ac 2DD0     		beq	.L126
 197:Drivers/STM32F4xx_HAL_Driver/Src/stm32f4xx_hal_dma_ex.c ****     __HAL_DMA_CLEAR_FLAG (hdma, __HAL_DMA_GET_TE_FLAG_INDEX(hdma));
 966              		.loc 1 197 5 discriminator 59 view .LVU264
 967 04ae A2F58962 		sub	r2, r2, #1096
 968 04b2 9342     		cmp	r3, r2
 969 04b4 2BD0     		beq	.L127
 197:Drivers/STM32F4xx_HAL_Driver/Src/stm32f4xx_hal_dma_ex.c ****     __HAL_DMA_CLEAR_FLAG (hdma, __HAL_DMA_GET_TE_FLAG_INDEX(hdma));
 970              		.loc 1 197 5 discriminator 61 view .LVU265
 971 04b6 02F58062 		add	r2, r2, #1024
 972 04ba 9342     		cmp	r3, r2
 973 04bc 2AD0     		beq	.L128
 197:Drivers/STM32F4xx_HAL_Driver/Src/stm32f4xx_hal_dma_ex.c ****     __HAL_DMA_CLEAR_FLAG (hdma, __HAL_DMA_GET_TE_FLAG_INDEX(hdma));
 974              		.loc 1 197 5 discriminator 63 view .LVU266
 975 04be A2F56872 		sub	r2, r2, #928
 976 04c2 9342     		cmp	r3, r2
 977 04c4 29D0     		beq	.L129
 197:Drivers/STM32F4xx_HAL_Driver/Src/stm32f4xx_hal_dma_ex.c ****     __HAL_DMA_CLEAR_FLAG (hdma, __HAL_DMA_GET_TE_FLAG_INDEX(hdma));
 978              		.loc 1 197 5 discriminator 65 view .LVU267
 979 04c6 02F58062 		add	r2, r2, #1024
 980 04ca 9342     		cmp	r3, r2
 981 04cc 28D0     		beq	.L130
 197:Drivers/STM32F4xx_HAL_Driver/Src/stm32f4xx_hal_dma_ex.c ****     __HAL_DMA_CLEAR_FLAG (hdma, __HAL_DMA_GET_TE_FLAG_INDEX(hdma));
 982              		.loc 1 197 5 discriminator 67 view .LVU268
 983 04ce A2F58962 		sub	r2, r2, #1096
 984 04d2 9342     		cmp	r3, r2
 985 04d4 27D0     		beq	.L131
 197:Drivers/STM32F4xx_HAL_Driver/Src/stm32f4xx_hal_dma_ex.c ****     __HAL_DMA_CLEAR_FLAG (hdma, __HAL_DMA_GET_TE_FLAG_INDEX(hdma));
 986              		.loc 1 197 5 discriminator 69 view .LVU269
 987 04d6 02F58062 		add	r2, r2, #1024
 988 04da 9342     		cmp	r3, r2
 989 04dc 26D0     		beq	.L132
ARM GAS  /tmp/ccWA14hl.s 			page 28


 197:Drivers/STM32F4xx_HAL_Driver/Src/stm32f4xx_hal_dma_ex.c ****     __HAL_DMA_CLEAR_FLAG (hdma, __HAL_DMA_GET_TE_FLAG_INDEX(hdma));
 990              		.loc 1 197 5 discriminator 71 view .LVU270
 991 04de A2F56872 		sub	r2, r2, #928
 992 04e2 9342     		cmp	r3, r2
 993 04e4 25D0     		beq	.L133
 197:Drivers/STM32F4xx_HAL_Driver/Src/stm32f4xx_hal_dma_ex.c ****     __HAL_DMA_CLEAR_FLAG (hdma, __HAL_DMA_GET_TE_FLAG_INDEX(hdma));
 994              		.loc 1 197 5 discriminator 73 view .LVU271
 995 04e6 02F58062 		add	r2, r2, #1024
 996 04ea 9342     		cmp	r3, r2
 997 04ec 02D0     		beq	.L312
 197:Drivers/STM32F4xx_HAL_Driver/Src/stm32f4xx_hal_dma_ex.c ****     __HAL_DMA_CLEAR_FLAG (hdma, __HAL_DMA_GET_TE_FLAG_INDEX(hdma));
 998              		.loc 1 197 5 discriminator 76 view .LVU272
 999 04ee 4FF08063 		mov	r3, #67108864
 1000 04f2 03E0     		b	.L32
 1001              	.L312:
 197:Drivers/STM32F4xx_HAL_Driver/Src/stm32f4xx_hal_dma_ex.c ****     __HAL_DMA_CLEAR_FLAG (hdma, __HAL_DMA_GET_TE_FLAG_INDEX(hdma));
 1002              		.loc 1 197 5 discriminator 75 view .LVU273
 1003 04f4 4FF48013 		mov	r3, #1048576
 1004 04f8 00E0     		b	.L32
 1005              	.L123:
 197:Drivers/STM32F4xx_HAL_Driver/Src/stm32f4xx_hal_dma_ex.c ****     __HAL_DMA_CLEAR_FLAG (hdma, __HAL_DMA_GET_TE_FLAG_INDEX(hdma));
 1006              		.loc 1 197 5 discriminator 54 view .LVU274
 1007 04fa 1023     		movs	r3, #16
 1008              	.L32:
 197:Drivers/STM32F4xx_HAL_Driver/Src/stm32f4xx_hal_dma_ex.c ****     __HAL_DMA_CLEAR_FLAG (hdma, __HAL_DMA_GET_TE_FLAG_INDEX(hdma));
 1009              		.loc 1 197 5 discriminator 100 view .LVU275
 1010 04fc 3A4A     		ldr	r2, .L329+8
 1011 04fe 9360     		str	r3, [r2, #8]
 1012 0500 64E7     		b	.L30
 1013              	.L124:
 197:Drivers/STM32F4xx_HAL_Driver/Src/stm32f4xx_hal_dma_ex.c ****     __HAL_DMA_CLEAR_FLAG (hdma, __HAL_DMA_GET_TE_FLAG_INDEX(hdma));
 1014              		.loc 1 197 5 discriminator 56 view .LVU276
 1015 0502 1023     		movs	r3, #16
 1016 0504 FAE7     		b	.L32
 1017              	.L125:
 197:Drivers/STM32F4xx_HAL_Driver/Src/stm32f4xx_hal_dma_ex.c ****     __HAL_DMA_CLEAR_FLAG (hdma, __HAL_DMA_GET_TE_FLAG_INDEX(hdma));
 1018              		.loc 1 197 5 discriminator 58 view .LVU277
 1019 0506 1023     		movs	r3, #16
 1020 0508 F8E7     		b	.L32
 1021              	.L126:
 197:Drivers/STM32F4xx_HAL_Driver/Src/stm32f4xx_hal_dma_ex.c ****     __HAL_DMA_CLEAR_FLAG (hdma, __HAL_DMA_GET_TE_FLAG_INDEX(hdma));
 1022              		.loc 1 197 5 discriminator 60 view .LVU278
 1023 050a 1023     		movs	r3, #16
 1024 050c F6E7     		b	.L32
 1025              	.L127:
 197:Drivers/STM32F4xx_HAL_Driver/Src/stm32f4xx_hal_dma_ex.c ****     __HAL_DMA_CLEAR_FLAG (hdma, __HAL_DMA_GET_TE_FLAG_INDEX(hdma));
 1026              		.loc 1 197 5 discriminator 62 view .LVU279
 1027 050e 4FF48063 		mov	r3, #1024
 1028 0512 F3E7     		b	.L32
 1029              	.L128:
 197:Drivers/STM32F4xx_HAL_Driver/Src/stm32f4xx_hal_dma_ex.c ****     __HAL_DMA_CLEAR_FLAG (hdma, __HAL_DMA_GET_TE_FLAG_INDEX(hdma));
 1030              		.loc 1 197 5 discriminator 64 view .LVU280
 1031 0514 4FF48063 		mov	r3, #1024
 1032 0518 F0E7     		b	.L32
 1033              	.L129:
 197:Drivers/STM32F4xx_HAL_Driver/Src/stm32f4xx_hal_dma_ex.c ****     __HAL_DMA_CLEAR_FLAG (hdma, __HAL_DMA_GET_TE_FLAG_INDEX(hdma));
 1034              		.loc 1 197 5 discriminator 66 view .LVU281
ARM GAS  /tmp/ccWA14hl.s 			page 29


 1035 051a 4FF48063 		mov	r3, #1024
 1036 051e EDE7     		b	.L32
 1037              	.L130:
 197:Drivers/STM32F4xx_HAL_Driver/Src/stm32f4xx_hal_dma_ex.c ****     __HAL_DMA_CLEAR_FLAG (hdma, __HAL_DMA_GET_TE_FLAG_INDEX(hdma));
 1038              		.loc 1 197 5 discriminator 68 view .LVU282
 1039 0520 4FF48063 		mov	r3, #1024
 1040 0524 EAE7     		b	.L32
 1041              	.L131:
 197:Drivers/STM32F4xx_HAL_Driver/Src/stm32f4xx_hal_dma_ex.c ****     __HAL_DMA_CLEAR_FLAG (hdma, __HAL_DMA_GET_TE_FLAG_INDEX(hdma));
 1042              		.loc 1 197 5 discriminator 70 view .LVU283
 1043 0526 4FF48013 		mov	r3, #1048576
 1044 052a E7E7     		b	.L32
 1045              	.L132:
 197:Drivers/STM32F4xx_HAL_Driver/Src/stm32f4xx_hal_dma_ex.c ****     __HAL_DMA_CLEAR_FLAG (hdma, __HAL_DMA_GET_TE_FLAG_INDEX(hdma));
 1046              		.loc 1 197 5 discriminator 72 view .LVU284
 1047 052c 4FF48013 		mov	r3, #1048576
 1048 0530 E4E7     		b	.L32
 1049              	.L133:
 197:Drivers/STM32F4xx_HAL_Driver/Src/stm32f4xx_hal_dma_ex.c ****     __HAL_DMA_CLEAR_FLAG (hdma, __HAL_DMA_GET_TE_FLAG_INDEX(hdma));
 1050              		.loc 1 197 5 discriminator 74 view .LVU285
 1051 0532 4FF48013 		mov	r3, #1048576
 1052 0536 E1E7     		b	.L32
 1053              	.L31:
 197:Drivers/STM32F4xx_HAL_Driver/Src/stm32f4xx_hal_dma_ex.c ****     __HAL_DMA_CLEAR_FLAG (hdma, __HAL_DMA_GET_TE_FLAG_INDEX(hdma));
 1054              		.loc 1 197 5 discriminator 52 view .LVU286
 1055 0538 2E4A     		ldr	r2, .L329+20
 1056 053a 9342     		cmp	r3, r2
 1057 053c 5FD9     		bls	.L33
 197:Drivers/STM32F4xx_HAL_Driver/Src/stm32f4xx_hal_dma_ex.c ****     __HAL_DMA_CLEAR_FLAG (hdma, __HAL_DMA_GET_TE_FLAG_INDEX(hdma));
 1058              		.loc 1 197 5 discriminator 102 view .LVU287
 1059 053e 483A     		subs	r2, r2, #72
 1060 0540 9342     		cmp	r3, r2
 1061 0542 31D0     		beq	.L135
 197:Drivers/STM32F4xx_HAL_Driver/Src/stm32f4xx_hal_dma_ex.c ****     __HAL_DMA_CLEAR_FLAG (hdma, __HAL_DMA_GET_TE_FLAG_INDEX(hdma));
 1062              		.loc 1 197 5 discriminator 104 view .LVU288
 1063 0544 02F58062 		add	r2, r2, #1024
 1064 0548 9342     		cmp	r3, r2
 1065 054a 31D0     		beq	.L136
 197:Drivers/STM32F4xx_HAL_Driver/Src/stm32f4xx_hal_dma_ex.c ****     __HAL_DMA_CLEAR_FLAG (hdma, __HAL_DMA_GET_TE_FLAG_INDEX(hdma));
 1066              		.loc 1 197 5 discriminator 106 view .LVU289
 1067 054c A2F56872 		sub	r2, r2, #928
 1068 0550 9342     		cmp	r3, r2
 1069 0552 2FD0     		beq	.L137
 197:Drivers/STM32F4xx_HAL_Driver/Src/stm32f4xx_hal_dma_ex.c ****     __HAL_DMA_CLEAR_FLAG (hdma, __HAL_DMA_GET_TE_FLAG_INDEX(hdma));
 1070              		.loc 1 197 5 discriminator 108 view .LVU290
 1071 0554 02F58062 		add	r2, r2, #1024
 1072 0558 9342     		cmp	r3, r2
 1073 055a 2DD0     		beq	.L138
 197:Drivers/STM32F4xx_HAL_Driver/Src/stm32f4xx_hal_dma_ex.c ****     __HAL_DMA_CLEAR_FLAG (hdma, __HAL_DMA_GET_TE_FLAG_INDEX(hdma));
 1074              		.loc 1 197 5 discriminator 110 view .LVU291
 1075 055c A2F58962 		sub	r2, r2, #1096
 1076 0560 9342     		cmp	r3, r2
 1077 0562 2BD0     		beq	.L139
 197:Drivers/STM32F4xx_HAL_Driver/Src/stm32f4xx_hal_dma_ex.c ****     __HAL_DMA_CLEAR_FLAG (hdma, __HAL_DMA_GET_TE_FLAG_INDEX(hdma));
 1078              		.loc 1 197 5 discriminator 112 view .LVU292
 1079 0564 02F58062 		add	r2, r2, #1024
 1080 0568 9342     		cmp	r3, r2
ARM GAS  /tmp/ccWA14hl.s 			page 30


 1081 056a 2AD0     		beq	.L140
 197:Drivers/STM32F4xx_HAL_Driver/Src/stm32f4xx_hal_dma_ex.c ****     __HAL_DMA_CLEAR_FLAG (hdma, __HAL_DMA_GET_TE_FLAG_INDEX(hdma));
 1082              		.loc 1 197 5 discriminator 114 view .LVU293
 1083 056c A2F56872 		sub	r2, r2, #928
 1084 0570 9342     		cmp	r3, r2
 1085 0572 29D0     		beq	.L141
 197:Drivers/STM32F4xx_HAL_Driver/Src/stm32f4xx_hal_dma_ex.c ****     __HAL_DMA_CLEAR_FLAG (hdma, __HAL_DMA_GET_TE_FLAG_INDEX(hdma));
 1086              		.loc 1 197 5 discriminator 116 view .LVU294
 1087 0574 02F58062 		add	r2, r2, #1024
 1088 0578 9342     		cmp	r3, r2
 1089 057a 28D0     		beq	.L142
 197:Drivers/STM32F4xx_HAL_Driver/Src/stm32f4xx_hal_dma_ex.c ****     __HAL_DMA_CLEAR_FLAG (hdma, __HAL_DMA_GET_TE_FLAG_INDEX(hdma));
 1090              		.loc 1 197 5 discriminator 118 view .LVU295
 1091 057c A2F58962 		sub	r2, r2, #1096
 1092 0580 9342     		cmp	r3, r2
 1093 0582 27D0     		beq	.L143
 197:Drivers/STM32F4xx_HAL_Driver/Src/stm32f4xx_hal_dma_ex.c ****     __HAL_DMA_CLEAR_FLAG (hdma, __HAL_DMA_GET_TE_FLAG_INDEX(hdma));
 1094              		.loc 1 197 5 discriminator 120 view .LVU296
 1095 0584 02F58062 		add	r2, r2, #1024
 1096 0588 9342     		cmp	r3, r2
 1097 058a 26D0     		beq	.L144
 197:Drivers/STM32F4xx_HAL_Driver/Src/stm32f4xx_hal_dma_ex.c ****     __HAL_DMA_CLEAR_FLAG (hdma, __HAL_DMA_GET_TE_FLAG_INDEX(hdma));
 1098              		.loc 1 197 5 discriminator 122 view .LVU297
 1099 058c A2F56872 		sub	r2, r2, #928
 1100 0590 9342     		cmp	r3, r2
 1101 0592 31D0     		beq	.L145
 197:Drivers/STM32F4xx_HAL_Driver/Src/stm32f4xx_hal_dma_ex.c ****     __HAL_DMA_CLEAR_FLAG (hdma, __HAL_DMA_GET_TE_FLAG_INDEX(hdma));
 1102              		.loc 1 197 5 discriminator 124 view .LVU298
 1103 0594 02F58062 		add	r2, r2, #1024
 1104 0598 9342     		cmp	r3, r2
 1105 059a 02D0     		beq	.L313
 197:Drivers/STM32F4xx_HAL_Driver/Src/stm32f4xx_hal_dma_ex.c ****     __HAL_DMA_CLEAR_FLAG (hdma, __HAL_DMA_GET_TE_FLAG_INDEX(hdma));
 1106              		.loc 1 197 5 discriminator 127 view .LVU299
 1107 059c 4FF08063 		mov	r3, #67108864
 1108 05a0 03E0     		b	.L34
 1109              	.L313:
 197:Drivers/STM32F4xx_HAL_Driver/Src/stm32f4xx_hal_dma_ex.c ****     __HAL_DMA_CLEAR_FLAG (hdma, __HAL_DMA_GET_TE_FLAG_INDEX(hdma));
 1110              		.loc 1 197 5 discriminator 126 view .LVU300
 1111 05a2 4FF48013 		mov	r3, #1048576
 1112 05a6 00E0     		b	.L34
 1113              	.L135:
 197:Drivers/STM32F4xx_HAL_Driver/Src/stm32f4xx_hal_dma_ex.c ****     __HAL_DMA_CLEAR_FLAG (hdma, __HAL_DMA_GET_TE_FLAG_INDEX(hdma));
 1114              		.loc 1 197 5 discriminator 105 view .LVU301
 1115 05a8 1023     		movs	r3, #16
 1116              	.L34:
 197:Drivers/STM32F4xx_HAL_Driver/Src/stm32f4xx_hal_dma_ex.c ****     __HAL_DMA_CLEAR_FLAG (hdma, __HAL_DMA_GET_TE_FLAG_INDEX(hdma));
 1117              		.loc 1 197 5 discriminator 151 view .LVU302
 1118 05aa 0E4A     		ldr	r2, .L329+4
 1119 05ac D360     		str	r3, [r2, #12]
 1120 05ae 0DE7     		b	.L30
 1121              	.L136:
 197:Drivers/STM32F4xx_HAL_Driver/Src/stm32f4xx_hal_dma_ex.c ****     __HAL_DMA_CLEAR_FLAG (hdma, __HAL_DMA_GET_TE_FLAG_INDEX(hdma));
 1122              		.loc 1 197 5 discriminator 107 view .LVU303
 1123 05b0 1023     		movs	r3, #16
 1124 05b2 FAE7     		b	.L34
 1125              	.L137:
 197:Drivers/STM32F4xx_HAL_Driver/Src/stm32f4xx_hal_dma_ex.c ****     __HAL_DMA_CLEAR_FLAG (hdma, __HAL_DMA_GET_TE_FLAG_INDEX(hdma));
ARM GAS  /tmp/ccWA14hl.s 			page 31


 1126              		.loc 1 197 5 discriminator 109 view .LVU304
 1127 05b4 1023     		movs	r3, #16
 1128 05b6 F8E7     		b	.L34
 1129              	.L138:
 197:Drivers/STM32F4xx_HAL_Driver/Src/stm32f4xx_hal_dma_ex.c ****     __HAL_DMA_CLEAR_FLAG (hdma, __HAL_DMA_GET_TE_FLAG_INDEX(hdma));
 1130              		.loc 1 197 5 discriminator 111 view .LVU305
 1131 05b8 1023     		movs	r3, #16
 1132 05ba F6E7     		b	.L34
 1133              	.L139:
 197:Drivers/STM32F4xx_HAL_Driver/Src/stm32f4xx_hal_dma_ex.c ****     __HAL_DMA_CLEAR_FLAG (hdma, __HAL_DMA_GET_TE_FLAG_INDEX(hdma));
 1134              		.loc 1 197 5 discriminator 113 view .LVU306
 1135 05bc 4FF48063 		mov	r3, #1024
 1136 05c0 F3E7     		b	.L34
 1137              	.L140:
 197:Drivers/STM32F4xx_HAL_Driver/Src/stm32f4xx_hal_dma_ex.c ****     __HAL_DMA_CLEAR_FLAG (hdma, __HAL_DMA_GET_TE_FLAG_INDEX(hdma));
 1138              		.loc 1 197 5 discriminator 115 view .LVU307
 1139 05c2 4FF48063 		mov	r3, #1024
 1140 05c6 F0E7     		b	.L34
 1141              	.L141:
 197:Drivers/STM32F4xx_HAL_Driver/Src/stm32f4xx_hal_dma_ex.c ****     __HAL_DMA_CLEAR_FLAG (hdma, __HAL_DMA_GET_TE_FLAG_INDEX(hdma));
 1142              		.loc 1 197 5 discriminator 117 view .LVU308
 1143 05c8 4FF48063 		mov	r3, #1024
 1144 05cc EDE7     		b	.L34
 1145              	.L142:
 197:Drivers/STM32F4xx_HAL_Driver/Src/stm32f4xx_hal_dma_ex.c ****     __HAL_DMA_CLEAR_FLAG (hdma, __HAL_DMA_GET_TE_FLAG_INDEX(hdma));
 1146              		.loc 1 197 5 discriminator 119 view .LVU309
 1147 05ce 4FF48063 		mov	r3, #1024
 1148 05d2 EAE7     		b	.L34
 1149              	.L143:
 197:Drivers/STM32F4xx_HAL_Driver/Src/stm32f4xx_hal_dma_ex.c ****     __HAL_DMA_CLEAR_FLAG (hdma, __HAL_DMA_GET_TE_FLAG_INDEX(hdma));
 1150              		.loc 1 197 5 discriminator 121 view .LVU310
 1151 05d4 4FF48013 		mov	r3, #1048576
 1152 05d8 E7E7     		b	.L34
 1153              	.L144:
 197:Drivers/STM32F4xx_HAL_Driver/Src/stm32f4xx_hal_dma_ex.c ****     __HAL_DMA_CLEAR_FLAG (hdma, __HAL_DMA_GET_TE_FLAG_INDEX(hdma));
 1154              		.loc 1 197 5 discriminator 123 view .LVU311
 1155 05da 4FF48013 		mov	r3, #1048576
 1156 05de E4E7     		b	.L34
 1157              	.L330:
 1158              		.align	2
 1159              	.L329:
 1160 05e0 10600240 		.word	1073897488
 1161 05e4 00600240 		.word	1073897472
 1162 05e8 00640240 		.word	1073898496
 1163 05ec 58640240 		.word	1073898584
 1164 05f0 B8600240 		.word	1073897656
 1165 05f4 58600240 		.word	1073897560
 1166              	.L145:
 197:Drivers/STM32F4xx_HAL_Driver/Src/stm32f4xx_hal_dma_ex.c ****     __HAL_DMA_CLEAR_FLAG (hdma, __HAL_DMA_GET_TE_FLAG_INDEX(hdma));
 1167              		.loc 1 197 5 discriminator 125 view .LVU312
 1168 05f8 4FF48013 		mov	r3, #1048576
 1169 05fc D5E7     		b	.L34
 1170              	.L33:
 197:Drivers/STM32F4xx_HAL_Driver/Src/stm32f4xx_hal_dma_ex.c ****     __HAL_DMA_CLEAR_FLAG (hdma, __HAL_DMA_GET_TE_FLAG_INDEX(hdma));
 1171              		.loc 1 197 5 discriminator 103 view .LVU313
 1172 05fe B24A     		ldr	r2, .L331
 1173 0600 9342     		cmp	r3, r2
ARM GAS  /tmp/ccWA14hl.s 			page 32


 1174 0602 31D0     		beq	.L147
 197:Drivers/STM32F4xx_HAL_Driver/Src/stm32f4xx_hal_dma_ex.c ****     __HAL_DMA_CLEAR_FLAG (hdma, __HAL_DMA_GET_TE_FLAG_INDEX(hdma));
 1175              		.loc 1 197 5 discriminator 153 view .LVU314
 1176 0604 02F58062 		add	r2, r2, #1024
 1177 0608 9342     		cmp	r3, r2
 1178 060a 31D0     		beq	.L148
 197:Drivers/STM32F4xx_HAL_Driver/Src/stm32f4xx_hal_dma_ex.c ****     __HAL_DMA_CLEAR_FLAG (hdma, __HAL_DMA_GET_TE_FLAG_INDEX(hdma));
 1179              		.loc 1 197 5 discriminator 155 view .LVU315
 1180 060c A2F56872 		sub	r2, r2, #928
 1181 0610 9342     		cmp	r3, r2
 1182 0612 2FD0     		beq	.L149
 197:Drivers/STM32F4xx_HAL_Driver/Src/stm32f4xx_hal_dma_ex.c ****     __HAL_DMA_CLEAR_FLAG (hdma, __HAL_DMA_GET_TE_FLAG_INDEX(hdma));
 1183              		.loc 1 197 5 discriminator 157 view .LVU316
 1184 0614 02F58062 		add	r2, r2, #1024
 1185 0618 9342     		cmp	r3, r2
 1186 061a 2DD0     		beq	.L150
 197:Drivers/STM32F4xx_HAL_Driver/Src/stm32f4xx_hal_dma_ex.c ****     __HAL_DMA_CLEAR_FLAG (hdma, __HAL_DMA_GET_TE_FLAG_INDEX(hdma));
 1187              		.loc 1 197 5 discriminator 159 view .LVU317
 1188 061c A2F58962 		sub	r2, r2, #1096
 1189 0620 9342     		cmp	r3, r2
 1190 0622 2BD0     		beq	.L151
 197:Drivers/STM32F4xx_HAL_Driver/Src/stm32f4xx_hal_dma_ex.c ****     __HAL_DMA_CLEAR_FLAG (hdma, __HAL_DMA_GET_TE_FLAG_INDEX(hdma));
 1191              		.loc 1 197 5 discriminator 161 view .LVU318
 1192 0624 02F58062 		add	r2, r2, #1024
 1193 0628 9342     		cmp	r3, r2
 1194 062a 2AD0     		beq	.L152
 197:Drivers/STM32F4xx_HAL_Driver/Src/stm32f4xx_hal_dma_ex.c ****     __HAL_DMA_CLEAR_FLAG (hdma, __HAL_DMA_GET_TE_FLAG_INDEX(hdma));
 1195              		.loc 1 197 5 discriminator 163 view .LVU319
 1196 062c A2F56872 		sub	r2, r2, #928
 1197 0630 9342     		cmp	r3, r2
 1198 0632 29D0     		beq	.L153
 197:Drivers/STM32F4xx_HAL_Driver/Src/stm32f4xx_hal_dma_ex.c ****     __HAL_DMA_CLEAR_FLAG (hdma, __HAL_DMA_GET_TE_FLAG_INDEX(hdma));
 1199              		.loc 1 197 5 discriminator 165 view .LVU320
 1200 0634 02F58062 		add	r2, r2, #1024
 1201 0638 9342     		cmp	r3, r2
 1202 063a 28D0     		beq	.L154
 197:Drivers/STM32F4xx_HAL_Driver/Src/stm32f4xx_hal_dma_ex.c ****     __HAL_DMA_CLEAR_FLAG (hdma, __HAL_DMA_GET_TE_FLAG_INDEX(hdma));
 1203              		.loc 1 197 5 discriminator 167 view .LVU321
 1204 063c A2F58962 		sub	r2, r2, #1096
 1205 0640 9342     		cmp	r3, r2
 1206 0642 27D0     		beq	.L155
 197:Drivers/STM32F4xx_HAL_Driver/Src/stm32f4xx_hal_dma_ex.c ****     __HAL_DMA_CLEAR_FLAG (hdma, __HAL_DMA_GET_TE_FLAG_INDEX(hdma));
 1207              		.loc 1 197 5 discriminator 169 view .LVU322
 1208 0644 02F58062 		add	r2, r2, #1024
 1209 0648 9342     		cmp	r3, r2
 1210 064a 26D0     		beq	.L156
 197:Drivers/STM32F4xx_HAL_Driver/Src/stm32f4xx_hal_dma_ex.c ****     __HAL_DMA_CLEAR_FLAG (hdma, __HAL_DMA_GET_TE_FLAG_INDEX(hdma));
 1211              		.loc 1 197 5 discriminator 171 view .LVU323
 1212 064c A2F56872 		sub	r2, r2, #928
 1213 0650 9342     		cmp	r3, r2
 1214 0652 25D0     		beq	.L157
 197:Drivers/STM32F4xx_HAL_Driver/Src/stm32f4xx_hal_dma_ex.c ****     __HAL_DMA_CLEAR_FLAG (hdma, __HAL_DMA_GET_TE_FLAG_INDEX(hdma));
 1215              		.loc 1 197 5 discriminator 173 view .LVU324
 1216 0654 02F58062 		add	r2, r2, #1024
 1217 0658 9342     		cmp	r3, r2
 1218 065a 02D0     		beq	.L314
 197:Drivers/STM32F4xx_HAL_Driver/Src/stm32f4xx_hal_dma_ex.c ****     __HAL_DMA_CLEAR_FLAG (hdma, __HAL_DMA_GET_TE_FLAG_INDEX(hdma));
ARM GAS  /tmp/ccWA14hl.s 			page 33


 1219              		.loc 1 197 5 discriminator 176 view .LVU325
 1220 065c 4FF08063 		mov	r3, #67108864
 1221 0660 03E0     		b	.L35
 1222              	.L314:
 197:Drivers/STM32F4xx_HAL_Driver/Src/stm32f4xx_hal_dma_ex.c ****     __HAL_DMA_CLEAR_FLAG (hdma, __HAL_DMA_GET_TE_FLAG_INDEX(hdma));
 1223              		.loc 1 197 5 discriminator 175 view .LVU326
 1224 0662 4FF48013 		mov	r3, #1048576
 1225 0666 00E0     		b	.L35
 1226              	.L147:
 197:Drivers/STM32F4xx_HAL_Driver/Src/stm32f4xx_hal_dma_ex.c ****     __HAL_DMA_CLEAR_FLAG (hdma, __HAL_DMA_GET_TE_FLAG_INDEX(hdma));
 1227              		.loc 1 197 5 discriminator 154 view .LVU327
 1228 0668 1023     		movs	r3, #16
 1229              	.L35:
 197:Drivers/STM32F4xx_HAL_Driver/Src/stm32f4xx_hal_dma_ex.c ****     __HAL_DMA_CLEAR_FLAG (hdma, __HAL_DMA_GET_TE_FLAG_INDEX(hdma));
 1230              		.loc 1 197 5 discriminator 200 view .LVU328
 1231 066a 984A     		ldr	r2, .L331+4
 1232 066c 9360     		str	r3, [r2, #8]
 1233 066e ADE6     		b	.L30
 1234              	.L148:
 197:Drivers/STM32F4xx_HAL_Driver/Src/stm32f4xx_hal_dma_ex.c ****     __HAL_DMA_CLEAR_FLAG (hdma, __HAL_DMA_GET_TE_FLAG_INDEX(hdma));
 1235              		.loc 1 197 5 discriminator 156 view .LVU329
 1236 0670 1023     		movs	r3, #16
 1237 0672 FAE7     		b	.L35
 1238              	.L149:
 197:Drivers/STM32F4xx_HAL_Driver/Src/stm32f4xx_hal_dma_ex.c ****     __HAL_DMA_CLEAR_FLAG (hdma, __HAL_DMA_GET_TE_FLAG_INDEX(hdma));
 1239              		.loc 1 197 5 discriminator 158 view .LVU330
 1240 0674 1023     		movs	r3, #16
 1241 0676 F8E7     		b	.L35
 1242              	.L150:
 197:Drivers/STM32F4xx_HAL_Driver/Src/stm32f4xx_hal_dma_ex.c ****     __HAL_DMA_CLEAR_FLAG (hdma, __HAL_DMA_GET_TE_FLAG_INDEX(hdma));
 1243              		.loc 1 197 5 discriminator 160 view .LVU331
 1244 0678 1023     		movs	r3, #16
 1245 067a F6E7     		b	.L35
 1246              	.L151:
 197:Drivers/STM32F4xx_HAL_Driver/Src/stm32f4xx_hal_dma_ex.c ****     __HAL_DMA_CLEAR_FLAG (hdma, __HAL_DMA_GET_TE_FLAG_INDEX(hdma));
 1247              		.loc 1 197 5 discriminator 162 view .LVU332
 1248 067c 4FF48063 		mov	r3, #1024
 1249 0680 F3E7     		b	.L35
 1250              	.L152:
 197:Drivers/STM32F4xx_HAL_Driver/Src/stm32f4xx_hal_dma_ex.c ****     __HAL_DMA_CLEAR_FLAG (hdma, __HAL_DMA_GET_TE_FLAG_INDEX(hdma));
 1251              		.loc 1 197 5 discriminator 164 view .LVU333
 1252 0682 4FF48063 		mov	r3, #1024
 1253 0686 F0E7     		b	.L35
 1254              	.L153:
 197:Drivers/STM32F4xx_HAL_Driver/Src/stm32f4xx_hal_dma_ex.c ****     __HAL_DMA_CLEAR_FLAG (hdma, __HAL_DMA_GET_TE_FLAG_INDEX(hdma));
 1255              		.loc 1 197 5 discriminator 166 view .LVU334
 1256 0688 4FF48063 		mov	r3, #1024
 1257 068c EDE7     		b	.L35
 1258              	.L154:
 197:Drivers/STM32F4xx_HAL_Driver/Src/stm32f4xx_hal_dma_ex.c ****     __HAL_DMA_CLEAR_FLAG (hdma, __HAL_DMA_GET_TE_FLAG_INDEX(hdma));
 1259              		.loc 1 197 5 discriminator 168 view .LVU335
 1260 068e 4FF48063 		mov	r3, #1024
 1261 0692 EAE7     		b	.L35
 1262              	.L155:
 197:Drivers/STM32F4xx_HAL_Driver/Src/stm32f4xx_hal_dma_ex.c ****     __HAL_DMA_CLEAR_FLAG (hdma, __HAL_DMA_GET_TE_FLAG_INDEX(hdma));
 1263              		.loc 1 197 5 discriminator 170 view .LVU336
 1264 0694 4FF48013 		mov	r3, #1048576
ARM GAS  /tmp/ccWA14hl.s 			page 34


 1265 0698 E7E7     		b	.L35
 1266              	.L156:
 197:Drivers/STM32F4xx_HAL_Driver/Src/stm32f4xx_hal_dma_ex.c ****     __HAL_DMA_CLEAR_FLAG (hdma, __HAL_DMA_GET_TE_FLAG_INDEX(hdma));
 1267              		.loc 1 197 5 discriminator 172 view .LVU337
 1268 069a 4FF48013 		mov	r3, #1048576
 1269 069e E4E7     		b	.L35
 1270              	.L157:
 197:Drivers/STM32F4xx_HAL_Driver/Src/stm32f4xx_hal_dma_ex.c ****     __HAL_DMA_CLEAR_FLAG (hdma, __HAL_DMA_GET_TE_FLAG_INDEX(hdma));
 1271              		.loc 1 197 5 discriminator 174 view .LVU338
 1272 06a0 4FF48013 		mov	r3, #1048576
 1273 06a4 E1E7     		b	.L35
 1274              	.L311:
 198:Drivers/STM32F4xx_HAL_Driver/Src/stm32f4xx_hal_dma_ex.c ****     __HAL_DMA_CLEAR_FLAG (hdma, __HAL_DMA_GET_DME_FLAG_INDEX(hdma));
 1275              		.loc 1 198 5 discriminator 25 view .LVU339
 1276 06a6 4FF40022 		mov	r2, #524288
 1277 06aa 00E0     		b	.L37
 1278              	.L159:
 198:Drivers/STM32F4xx_HAL_Driver/Src/stm32f4xx_hal_dma_ex.c ****     __HAL_DMA_CLEAR_FLAG (hdma, __HAL_DMA_GET_DME_FLAG_INDEX(hdma));
 1279              		.loc 1 198 5 discriminator 4 view .LVU340
 1280 06ac 0822     		movs	r2, #8
 1281              	.L37:
 198:Drivers/STM32F4xx_HAL_Driver/Src/stm32f4xx_hal_dma_ex.c ****     __HAL_DMA_CLEAR_FLAG (hdma, __HAL_DMA_GET_DME_FLAG_INDEX(hdma));
 1282              		.loc 1 198 5 discriminator 50 view .LVU341
 1283 06ae 884B     		ldr	r3, .L331+8
 1284 06b0 DA60     		str	r2, [r3, #12]
 1285              	.L38:
 199:Drivers/STM32F4xx_HAL_Driver/Src/stm32f4xx_hal_dma_ex.c ****     __HAL_DMA_CLEAR_FLAG (hdma, __HAL_DMA_GET_FE_FLAG_INDEX(hdma));
 1286              		.loc 1 199 5 is_stmt 1 view .LVU342
 1287 06b2 2368     		ldr	r3, [r4]
 1288 06b4 874A     		ldr	r2, .L331+12
 1289 06b6 9342     		cmp	r3, r2
 1290 06b8 40F2CE81 		bls	.L44
 199:Drivers/STM32F4xx_HAL_Driver/Src/stm32f4xx_hal_dma_ex.c ****     __HAL_DMA_CLEAR_FLAG (hdma, __HAL_DMA_GET_FE_FLAG_INDEX(hdma));
 1291              		.loc 1 199 5 is_stmt 0 discriminator 1 view .LVU343
 1292 06bc A2F58962 		sub	r2, r2, #1096
 1293 06c0 9342     		cmp	r3, r2
 1294 06c2 00F06781 		beq	.L207
 199:Drivers/STM32F4xx_HAL_Driver/Src/stm32f4xx_hal_dma_ex.c ****     __HAL_DMA_CLEAR_FLAG (hdma, __HAL_DMA_GET_FE_FLAG_INDEX(hdma));
 1295              		.loc 1 199 5 discriminator 3 view .LVU344
 1296 06c6 02F58062 		add	r2, r2, #1024
 1297 06ca 9342     		cmp	r3, r2
 1298 06cc 00F0A981 		beq	.L208
 199:Drivers/STM32F4xx_HAL_Driver/Src/stm32f4xx_hal_dma_ex.c ****     __HAL_DMA_CLEAR_FLAG (hdma, __HAL_DMA_GET_FE_FLAG_INDEX(hdma));
 1299              		.loc 1 199 5 discriminator 5 view .LVU345
 1300 06d0 A2F56872 		sub	r2, r2, #928
 1301 06d4 9342     		cmp	r3, r2
 1302 06d6 00F0A681 		beq	.L209
 199:Drivers/STM32F4xx_HAL_Driver/Src/stm32f4xx_hal_dma_ex.c ****     __HAL_DMA_CLEAR_FLAG (hdma, __HAL_DMA_GET_FE_FLAG_INDEX(hdma));
 1303              		.loc 1 199 5 discriminator 7 view .LVU346
 1304 06da 02F58062 		add	r2, r2, #1024
 1305 06de 9342     		cmp	r3, r2
 1306 06e0 00F0A381 		beq	.L210
 199:Drivers/STM32F4xx_HAL_Driver/Src/stm32f4xx_hal_dma_ex.c ****     __HAL_DMA_CLEAR_FLAG (hdma, __HAL_DMA_GET_FE_FLAG_INDEX(hdma));
 1307              		.loc 1 199 5 discriminator 9 view .LVU347
 1308 06e4 A2F58962 		sub	r2, r2, #1096
 1309 06e8 9342     		cmp	r3, r2
 1310 06ea 00F0A081 		beq	.L211
ARM GAS  /tmp/ccWA14hl.s 			page 35


 199:Drivers/STM32F4xx_HAL_Driver/Src/stm32f4xx_hal_dma_ex.c ****     __HAL_DMA_CLEAR_FLAG (hdma, __HAL_DMA_GET_FE_FLAG_INDEX(hdma));
 1311              		.loc 1 199 5 discriminator 11 view .LVU348
 1312 06ee 02F58062 		add	r2, r2, #1024
 1313 06f2 9342     		cmp	r3, r2
 1314 06f4 00F09E81 		beq	.L212
 199:Drivers/STM32F4xx_HAL_Driver/Src/stm32f4xx_hal_dma_ex.c ****     __HAL_DMA_CLEAR_FLAG (hdma, __HAL_DMA_GET_FE_FLAG_INDEX(hdma));
 1315              		.loc 1 199 5 discriminator 13 view .LVU349
 1316 06f8 A2F56872 		sub	r2, r2, #928
 1317 06fc 9342     		cmp	r3, r2
 1318 06fe 00F09C81 		beq	.L213
 199:Drivers/STM32F4xx_HAL_Driver/Src/stm32f4xx_hal_dma_ex.c ****     __HAL_DMA_CLEAR_FLAG (hdma, __HAL_DMA_GET_FE_FLAG_INDEX(hdma));
 1319              		.loc 1 199 5 discriminator 15 view .LVU350
 1320 0702 02F58062 		add	r2, r2, #1024
 1321 0706 9342     		cmp	r3, r2
 1322 0708 00F09A81 		beq	.L214
 199:Drivers/STM32F4xx_HAL_Driver/Src/stm32f4xx_hal_dma_ex.c ****     __HAL_DMA_CLEAR_FLAG (hdma, __HAL_DMA_GET_FE_FLAG_INDEX(hdma));
 1323              		.loc 1 199 5 discriminator 17 view .LVU351
 1324 070c A2F58962 		sub	r2, r2, #1096
 1325 0710 9342     		cmp	r3, r2
 1326 0712 00F09881 		beq	.L215
 199:Drivers/STM32F4xx_HAL_Driver/Src/stm32f4xx_hal_dma_ex.c ****     __HAL_DMA_CLEAR_FLAG (hdma, __HAL_DMA_GET_FE_FLAG_INDEX(hdma));
 1327              		.loc 1 199 5 discriminator 19 view .LVU352
 1328 0716 02F58062 		add	r2, r2, #1024
 1329 071a 9342     		cmp	r3, r2
 1330 071c 00F09681 		beq	.L216
 199:Drivers/STM32F4xx_HAL_Driver/Src/stm32f4xx_hal_dma_ex.c ****     __HAL_DMA_CLEAR_FLAG (hdma, __HAL_DMA_GET_FE_FLAG_INDEX(hdma));
 1331              		.loc 1 199 5 discriminator 21 view .LVU353
 1332 0720 A2F56872 		sub	r2, r2, #928
 1333 0724 9342     		cmp	r3, r2
 1334 0726 00F09481 		beq	.L217
 199:Drivers/STM32F4xx_HAL_Driver/Src/stm32f4xx_hal_dma_ex.c ****     __HAL_DMA_CLEAR_FLAG (hdma, __HAL_DMA_GET_FE_FLAG_INDEX(hdma));
 1335              		.loc 1 199 5 discriminator 23 view .LVU354
 1336 072a 02F58062 		add	r2, r2, #1024
 1337 072e 9342     		cmp	r3, r2
 1338 0730 00F02D81 		beq	.L315
 199:Drivers/STM32F4xx_HAL_Driver/Src/stm32f4xx_hal_dma_ex.c ****     __HAL_DMA_CLEAR_FLAG (hdma, __HAL_DMA_GET_FE_FLAG_INDEX(hdma));
 1339              		.loc 1 199 5 discriminator 26 view .LVU355
 1340 0734 4FF08072 		mov	r2, #16777216
 1341 0738 2DE1     		b	.L45
 1342              	.L160:
 198:Drivers/STM32F4xx_HAL_Driver/Src/stm32f4xx_hal_dma_ex.c ****     __HAL_DMA_CLEAR_FLAG (hdma, __HAL_DMA_GET_DME_FLAG_INDEX(hdma));
 1343              		.loc 1 198 5 discriminator 6 view .LVU356
 1344 073a 0822     		movs	r2, #8
 1345 073c B7E7     		b	.L37
 1346              	.L161:
 198:Drivers/STM32F4xx_HAL_Driver/Src/stm32f4xx_hal_dma_ex.c ****     __HAL_DMA_CLEAR_FLAG (hdma, __HAL_DMA_GET_DME_FLAG_INDEX(hdma));
 1347              		.loc 1 198 5 discriminator 8 view .LVU357
 1348 073e 0822     		movs	r2, #8
 1349 0740 B5E7     		b	.L37
 1350              	.L162:
 198:Drivers/STM32F4xx_HAL_Driver/Src/stm32f4xx_hal_dma_ex.c ****     __HAL_DMA_CLEAR_FLAG (hdma, __HAL_DMA_GET_DME_FLAG_INDEX(hdma));
 1351              		.loc 1 198 5 discriminator 10 view .LVU358
 1352 0742 0822     		movs	r2, #8
 1353 0744 B3E7     		b	.L37
 1354              	.L163:
 198:Drivers/STM32F4xx_HAL_Driver/Src/stm32f4xx_hal_dma_ex.c ****     __HAL_DMA_CLEAR_FLAG (hdma, __HAL_DMA_GET_DME_FLAG_INDEX(hdma));
 1355              		.loc 1 198 5 discriminator 12 view .LVU359
ARM GAS  /tmp/ccWA14hl.s 			page 36


 1356 0746 4FF40072 		mov	r2, #512
 1357 074a B0E7     		b	.L37
 1358              	.L164:
 198:Drivers/STM32F4xx_HAL_Driver/Src/stm32f4xx_hal_dma_ex.c ****     __HAL_DMA_CLEAR_FLAG (hdma, __HAL_DMA_GET_DME_FLAG_INDEX(hdma));
 1359              		.loc 1 198 5 discriminator 14 view .LVU360
 1360 074c 4FF40072 		mov	r2, #512
 1361 0750 ADE7     		b	.L37
 1362              	.L165:
 198:Drivers/STM32F4xx_HAL_Driver/Src/stm32f4xx_hal_dma_ex.c ****     __HAL_DMA_CLEAR_FLAG (hdma, __HAL_DMA_GET_DME_FLAG_INDEX(hdma));
 1363              		.loc 1 198 5 discriminator 16 view .LVU361
 1364 0752 4FF40072 		mov	r2, #512
 1365 0756 AAE7     		b	.L37
 1366              	.L166:
 198:Drivers/STM32F4xx_HAL_Driver/Src/stm32f4xx_hal_dma_ex.c ****     __HAL_DMA_CLEAR_FLAG (hdma, __HAL_DMA_GET_DME_FLAG_INDEX(hdma));
 1367              		.loc 1 198 5 discriminator 18 view .LVU362
 1368 0758 4FF40072 		mov	r2, #512
 1369 075c A7E7     		b	.L37
 1370              	.L167:
 198:Drivers/STM32F4xx_HAL_Driver/Src/stm32f4xx_hal_dma_ex.c ****     __HAL_DMA_CLEAR_FLAG (hdma, __HAL_DMA_GET_DME_FLAG_INDEX(hdma));
 1371              		.loc 1 198 5 discriminator 20 view .LVU363
 1372 075e 4FF40022 		mov	r2, #524288
 1373 0762 A4E7     		b	.L37
 1374              	.L168:
 198:Drivers/STM32F4xx_HAL_Driver/Src/stm32f4xx_hal_dma_ex.c ****     __HAL_DMA_CLEAR_FLAG (hdma, __HAL_DMA_GET_DME_FLAG_INDEX(hdma));
 1375              		.loc 1 198 5 discriminator 22 view .LVU364
 1376 0764 4FF40022 		mov	r2, #524288
 1377 0768 A1E7     		b	.L37
 1378              	.L169:
 198:Drivers/STM32F4xx_HAL_Driver/Src/stm32f4xx_hal_dma_ex.c ****     __HAL_DMA_CLEAR_FLAG (hdma, __HAL_DMA_GET_DME_FLAG_INDEX(hdma));
 1379              		.loc 1 198 5 discriminator 24 view .LVU365
 1380 076a 4FF40022 		mov	r2, #524288
 1381 076e 9EE7     		b	.L37
 1382              	.L36:
 198:Drivers/STM32F4xx_HAL_Driver/Src/stm32f4xx_hal_dma_ex.c ****     __HAL_DMA_CLEAR_FLAG (hdma, __HAL_DMA_GET_DME_FLAG_INDEX(hdma));
 1383              		.loc 1 198 5 discriminator 2 view .LVU366
 1384 0770 594A     		ldr	r2, .L331+16
 1385 0772 9342     		cmp	r3, r2
 1386 0774 53D9     		bls	.L39
 198:Drivers/STM32F4xx_HAL_Driver/Src/stm32f4xx_hal_dma_ex.c ****     __HAL_DMA_CLEAR_FLAG (hdma, __HAL_DMA_GET_DME_FLAG_INDEX(hdma));
 1387              		.loc 1 198 5 discriminator 51 view .LVU367
 1388 0776 A83A     		subs	r2, r2, #168
 1389 0778 9342     		cmp	r3, r2
 1390 077a 31D0     		beq	.L171
 198:Drivers/STM32F4xx_HAL_Driver/Src/stm32f4xx_hal_dma_ex.c ****     __HAL_DMA_CLEAR_FLAG (hdma, __HAL_DMA_GET_DME_FLAG_INDEX(hdma));
 1391              		.loc 1 198 5 discriminator 53 view .LVU368
 1392 077c 02F58062 		add	r2, r2, #1024
 1393 0780 9342     		cmp	r3, r2
 1394 0782 31D0     		beq	.L172
 198:Drivers/STM32F4xx_HAL_Driver/Src/stm32f4xx_hal_dma_ex.c ****     __HAL_DMA_CLEAR_FLAG (hdma, __HAL_DMA_GET_DME_FLAG_INDEX(hdma));
 1395              		.loc 1 198 5 discriminator 55 view .LVU369
 1396 0784 A2F56872 		sub	r2, r2, #928
 1397 0788 9342     		cmp	r3, r2
 1398 078a 2FD0     		beq	.L173
 198:Drivers/STM32F4xx_HAL_Driver/Src/stm32f4xx_hal_dma_ex.c ****     __HAL_DMA_CLEAR_FLAG (hdma, __HAL_DMA_GET_DME_FLAG_INDEX(hdma));
 1399              		.loc 1 198 5 discriminator 57 view .LVU370
 1400 078c 02F58062 		add	r2, r2, #1024
 1401 0790 9342     		cmp	r3, r2
ARM GAS  /tmp/ccWA14hl.s 			page 37


 1402 0792 2DD0     		beq	.L174
 198:Drivers/STM32F4xx_HAL_Driver/Src/stm32f4xx_hal_dma_ex.c ****     __HAL_DMA_CLEAR_FLAG (hdma, __HAL_DMA_GET_DME_FLAG_INDEX(hdma));
 1403              		.loc 1 198 5 discriminator 59 view .LVU371
 1404 0794 A2F58962 		sub	r2, r2, #1096
 1405 0798 9342     		cmp	r3, r2
 1406 079a 2BD0     		beq	.L175
 198:Drivers/STM32F4xx_HAL_Driver/Src/stm32f4xx_hal_dma_ex.c ****     __HAL_DMA_CLEAR_FLAG (hdma, __HAL_DMA_GET_DME_FLAG_INDEX(hdma));
 1407              		.loc 1 198 5 discriminator 61 view .LVU372
 1408 079c 02F58062 		add	r2, r2, #1024
 1409 07a0 9342     		cmp	r3, r2
 1410 07a2 2AD0     		beq	.L176
 198:Drivers/STM32F4xx_HAL_Driver/Src/stm32f4xx_hal_dma_ex.c ****     __HAL_DMA_CLEAR_FLAG (hdma, __HAL_DMA_GET_DME_FLAG_INDEX(hdma));
 1411              		.loc 1 198 5 discriminator 63 view .LVU373
 1412 07a4 A2F56872 		sub	r2, r2, #928
 1413 07a8 9342     		cmp	r3, r2
 1414 07aa 29D0     		beq	.L177
 198:Drivers/STM32F4xx_HAL_Driver/Src/stm32f4xx_hal_dma_ex.c ****     __HAL_DMA_CLEAR_FLAG (hdma, __HAL_DMA_GET_DME_FLAG_INDEX(hdma));
 1415              		.loc 1 198 5 discriminator 65 view .LVU374
 1416 07ac 02F58062 		add	r2, r2, #1024
 1417 07b0 9342     		cmp	r3, r2
 1418 07b2 28D0     		beq	.L178
 198:Drivers/STM32F4xx_HAL_Driver/Src/stm32f4xx_hal_dma_ex.c ****     __HAL_DMA_CLEAR_FLAG (hdma, __HAL_DMA_GET_DME_FLAG_INDEX(hdma));
 1419              		.loc 1 198 5 discriminator 67 view .LVU375
 1420 07b4 A2F58962 		sub	r2, r2, #1096
 1421 07b8 9342     		cmp	r3, r2
 1422 07ba 27D0     		beq	.L179
 198:Drivers/STM32F4xx_HAL_Driver/Src/stm32f4xx_hal_dma_ex.c ****     __HAL_DMA_CLEAR_FLAG (hdma, __HAL_DMA_GET_DME_FLAG_INDEX(hdma));
 1423              		.loc 1 198 5 discriminator 69 view .LVU376
 1424 07bc 02F58062 		add	r2, r2, #1024
 1425 07c0 9342     		cmp	r3, r2
 1426 07c2 26D0     		beq	.L180
 198:Drivers/STM32F4xx_HAL_Driver/Src/stm32f4xx_hal_dma_ex.c ****     __HAL_DMA_CLEAR_FLAG (hdma, __HAL_DMA_GET_DME_FLAG_INDEX(hdma));
 1427              		.loc 1 198 5 discriminator 71 view .LVU377
 1428 07c4 A2F56872 		sub	r2, r2, #928
 1429 07c8 9342     		cmp	r3, r2
 1430 07ca 25D0     		beq	.L181
 198:Drivers/STM32F4xx_HAL_Driver/Src/stm32f4xx_hal_dma_ex.c ****     __HAL_DMA_CLEAR_FLAG (hdma, __HAL_DMA_GET_DME_FLAG_INDEX(hdma));
 1431              		.loc 1 198 5 discriminator 73 view .LVU378
 1432 07cc 02F58062 		add	r2, r2, #1024
 1433 07d0 9342     		cmp	r3, r2
 1434 07d2 02D0     		beq	.L316
 198:Drivers/STM32F4xx_HAL_Driver/Src/stm32f4xx_hal_dma_ex.c ****     __HAL_DMA_CLEAR_FLAG (hdma, __HAL_DMA_GET_DME_FLAG_INDEX(hdma));
 1435              		.loc 1 198 5 discriminator 76 view .LVU379
 1436 07d4 4FF00073 		mov	r3, #33554432
 1437 07d8 03E0     		b	.L40
 1438              	.L316:
 198:Drivers/STM32F4xx_HAL_Driver/Src/stm32f4xx_hal_dma_ex.c ****     __HAL_DMA_CLEAR_FLAG (hdma, __HAL_DMA_GET_DME_FLAG_INDEX(hdma));
 1439              		.loc 1 198 5 discriminator 75 view .LVU380
 1440 07da 4FF40023 		mov	r3, #524288
 1441 07de 00E0     		b	.L40
 1442              	.L171:
 198:Drivers/STM32F4xx_HAL_Driver/Src/stm32f4xx_hal_dma_ex.c ****     __HAL_DMA_CLEAR_FLAG (hdma, __HAL_DMA_GET_DME_FLAG_INDEX(hdma));
 1443              		.loc 1 198 5 discriminator 54 view .LVU381
 1444 07e0 0823     		movs	r3, #8
 1445              	.L40:
 198:Drivers/STM32F4xx_HAL_Driver/Src/stm32f4xx_hal_dma_ex.c ****     __HAL_DMA_CLEAR_FLAG (hdma, __HAL_DMA_GET_DME_FLAG_INDEX(hdma));
 1446              		.loc 1 198 5 discriminator 100 view .LVU382
ARM GAS  /tmp/ccWA14hl.s 			page 38


 1447 07e2 3B4A     		ldr	r2, .L331+8
 1448 07e4 9360     		str	r3, [r2, #8]
 1449 07e6 64E7     		b	.L38
 1450              	.L172:
 198:Drivers/STM32F4xx_HAL_Driver/Src/stm32f4xx_hal_dma_ex.c ****     __HAL_DMA_CLEAR_FLAG (hdma, __HAL_DMA_GET_DME_FLAG_INDEX(hdma));
 1451              		.loc 1 198 5 discriminator 56 view .LVU383
 1452 07e8 0823     		movs	r3, #8
 1453 07ea FAE7     		b	.L40
 1454              	.L173:
 198:Drivers/STM32F4xx_HAL_Driver/Src/stm32f4xx_hal_dma_ex.c ****     __HAL_DMA_CLEAR_FLAG (hdma, __HAL_DMA_GET_DME_FLAG_INDEX(hdma));
 1455              		.loc 1 198 5 discriminator 58 view .LVU384
 1456 07ec 0823     		movs	r3, #8
 1457 07ee F8E7     		b	.L40
 1458              	.L174:
 198:Drivers/STM32F4xx_HAL_Driver/Src/stm32f4xx_hal_dma_ex.c ****     __HAL_DMA_CLEAR_FLAG (hdma, __HAL_DMA_GET_DME_FLAG_INDEX(hdma));
 1459              		.loc 1 198 5 discriminator 60 view .LVU385
 1460 07f0 0823     		movs	r3, #8
 1461 07f2 F6E7     		b	.L40
 1462              	.L175:
 198:Drivers/STM32F4xx_HAL_Driver/Src/stm32f4xx_hal_dma_ex.c ****     __HAL_DMA_CLEAR_FLAG (hdma, __HAL_DMA_GET_DME_FLAG_INDEX(hdma));
 1463              		.loc 1 198 5 discriminator 62 view .LVU386
 1464 07f4 4FF40073 		mov	r3, #512
 1465 07f8 F3E7     		b	.L40
 1466              	.L176:
 198:Drivers/STM32F4xx_HAL_Driver/Src/stm32f4xx_hal_dma_ex.c ****     __HAL_DMA_CLEAR_FLAG (hdma, __HAL_DMA_GET_DME_FLAG_INDEX(hdma));
 1467              		.loc 1 198 5 discriminator 64 view .LVU387
 1468 07fa 4FF40073 		mov	r3, #512
 1469 07fe F0E7     		b	.L40
 1470              	.L177:
 198:Drivers/STM32F4xx_HAL_Driver/Src/stm32f4xx_hal_dma_ex.c ****     __HAL_DMA_CLEAR_FLAG (hdma, __HAL_DMA_GET_DME_FLAG_INDEX(hdma));
 1471              		.loc 1 198 5 discriminator 66 view .LVU388
 1472 0800 4FF40073 		mov	r3, #512
 1473 0804 EDE7     		b	.L40
 1474              	.L178:
 198:Drivers/STM32F4xx_HAL_Driver/Src/stm32f4xx_hal_dma_ex.c ****     __HAL_DMA_CLEAR_FLAG (hdma, __HAL_DMA_GET_DME_FLAG_INDEX(hdma));
 1475              		.loc 1 198 5 discriminator 68 view .LVU389
 1476 0806 4FF40073 		mov	r3, #512
 1477 080a EAE7     		b	.L40
 1478              	.L179:
 198:Drivers/STM32F4xx_HAL_Driver/Src/stm32f4xx_hal_dma_ex.c ****     __HAL_DMA_CLEAR_FLAG (hdma, __HAL_DMA_GET_DME_FLAG_INDEX(hdma));
 1479              		.loc 1 198 5 discriminator 70 view .LVU390
 1480 080c 4FF40023 		mov	r3, #524288
 1481 0810 E7E7     		b	.L40
 1482              	.L180:
 198:Drivers/STM32F4xx_HAL_Driver/Src/stm32f4xx_hal_dma_ex.c ****     __HAL_DMA_CLEAR_FLAG (hdma, __HAL_DMA_GET_DME_FLAG_INDEX(hdma));
 1483              		.loc 1 198 5 discriminator 72 view .LVU391
 1484 0812 4FF40023 		mov	r3, #524288
 1485 0816 E4E7     		b	.L40
 1486              	.L181:
 198:Drivers/STM32F4xx_HAL_Driver/Src/stm32f4xx_hal_dma_ex.c ****     __HAL_DMA_CLEAR_FLAG (hdma, __HAL_DMA_GET_DME_FLAG_INDEX(hdma));
 1487              		.loc 1 198 5 discriminator 74 view .LVU392
 1488 0818 4FF40023 		mov	r3, #524288
 1489 081c E1E7     		b	.L40
 1490              	.L39:
 198:Drivers/STM32F4xx_HAL_Driver/Src/stm32f4xx_hal_dma_ex.c ****     __HAL_DMA_CLEAR_FLAG (hdma, __HAL_DMA_GET_DME_FLAG_INDEX(hdma));
 1491              		.loc 1 198 5 discriminator 52 view .LVU393
 1492 081e 2F4A     		ldr	r2, .L331+20
ARM GAS  /tmp/ccWA14hl.s 			page 39


 1493 0820 9342     		cmp	r3, r2
 1494 0822 60D9     		bls	.L41
 198:Drivers/STM32F4xx_HAL_Driver/Src/stm32f4xx_hal_dma_ex.c ****     __HAL_DMA_CLEAR_FLAG (hdma, __HAL_DMA_GET_DME_FLAG_INDEX(hdma));
 1495              		.loc 1 198 5 discriminator 102 view .LVU394
 1496 0824 483A     		subs	r2, r2, #72
 1497 0826 9342     		cmp	r3, r2
 1498 0828 31D0     		beq	.L183
 198:Drivers/STM32F4xx_HAL_Driver/Src/stm32f4xx_hal_dma_ex.c ****     __HAL_DMA_CLEAR_FLAG (hdma, __HAL_DMA_GET_DME_FLAG_INDEX(hdma));
 1499              		.loc 1 198 5 discriminator 104 view .LVU395
 1500 082a 02F58062 		add	r2, r2, #1024
 1501 082e 9342     		cmp	r3, r2
 1502 0830 31D0     		beq	.L184
 198:Drivers/STM32F4xx_HAL_Driver/Src/stm32f4xx_hal_dma_ex.c ****     __HAL_DMA_CLEAR_FLAG (hdma, __HAL_DMA_GET_DME_FLAG_INDEX(hdma));
 1503              		.loc 1 198 5 discriminator 106 view .LVU396
 1504 0832 A2F56872 		sub	r2, r2, #928
 1505 0836 9342     		cmp	r3, r2
 1506 0838 2FD0     		beq	.L185
 198:Drivers/STM32F4xx_HAL_Driver/Src/stm32f4xx_hal_dma_ex.c ****     __HAL_DMA_CLEAR_FLAG (hdma, __HAL_DMA_GET_DME_FLAG_INDEX(hdma));
 1507              		.loc 1 198 5 discriminator 108 view .LVU397
 1508 083a 02F58062 		add	r2, r2, #1024
 1509 083e 9342     		cmp	r3, r2
 1510 0840 2DD0     		beq	.L186
 198:Drivers/STM32F4xx_HAL_Driver/Src/stm32f4xx_hal_dma_ex.c ****     __HAL_DMA_CLEAR_FLAG (hdma, __HAL_DMA_GET_DME_FLAG_INDEX(hdma));
 1511              		.loc 1 198 5 discriminator 110 view .LVU398
 1512 0842 A2F58962 		sub	r2, r2, #1096
 1513 0846 9342     		cmp	r3, r2
 1514 0848 2BD0     		beq	.L187
 198:Drivers/STM32F4xx_HAL_Driver/Src/stm32f4xx_hal_dma_ex.c ****     __HAL_DMA_CLEAR_FLAG (hdma, __HAL_DMA_GET_DME_FLAG_INDEX(hdma));
 1515              		.loc 1 198 5 discriminator 112 view .LVU399
 1516 084a 02F58062 		add	r2, r2, #1024
 1517 084e 9342     		cmp	r3, r2
 1518 0850 2AD0     		beq	.L188
 198:Drivers/STM32F4xx_HAL_Driver/Src/stm32f4xx_hal_dma_ex.c ****     __HAL_DMA_CLEAR_FLAG (hdma, __HAL_DMA_GET_DME_FLAG_INDEX(hdma));
 1519              		.loc 1 198 5 discriminator 114 view .LVU400
 1520 0852 A2F56872 		sub	r2, r2, #928
 1521 0856 9342     		cmp	r3, r2
 1522 0858 29D0     		beq	.L189
 198:Drivers/STM32F4xx_HAL_Driver/Src/stm32f4xx_hal_dma_ex.c ****     __HAL_DMA_CLEAR_FLAG (hdma, __HAL_DMA_GET_DME_FLAG_INDEX(hdma));
 1523              		.loc 1 198 5 discriminator 116 view .LVU401
 1524 085a 02F58062 		add	r2, r2, #1024
 1525 085e 9342     		cmp	r3, r2
 1526 0860 28D0     		beq	.L190
 198:Drivers/STM32F4xx_HAL_Driver/Src/stm32f4xx_hal_dma_ex.c ****     __HAL_DMA_CLEAR_FLAG (hdma, __HAL_DMA_GET_DME_FLAG_INDEX(hdma));
 1527              		.loc 1 198 5 discriminator 118 view .LVU402
 1528 0862 A2F58962 		sub	r2, r2, #1096
 1529 0866 9342     		cmp	r3, r2
 1530 0868 27D0     		beq	.L191
 198:Drivers/STM32F4xx_HAL_Driver/Src/stm32f4xx_hal_dma_ex.c ****     __HAL_DMA_CLEAR_FLAG (hdma, __HAL_DMA_GET_DME_FLAG_INDEX(hdma));
 1531              		.loc 1 198 5 discriminator 120 view .LVU403
 1532 086a 02F58062 		add	r2, r2, #1024
 1533 086e 9342     		cmp	r3, r2
 1534 0870 26D0     		beq	.L192
 198:Drivers/STM32F4xx_HAL_Driver/Src/stm32f4xx_hal_dma_ex.c ****     __HAL_DMA_CLEAR_FLAG (hdma, __HAL_DMA_GET_DME_FLAG_INDEX(hdma));
 1535              		.loc 1 198 5 discriminator 122 view .LVU404
 1536 0872 A2F56872 		sub	r2, r2, #928
 1537 0876 9342     		cmp	r3, r2
 1538 0878 32D0     		beq	.L193
ARM GAS  /tmp/ccWA14hl.s 			page 40


 198:Drivers/STM32F4xx_HAL_Driver/Src/stm32f4xx_hal_dma_ex.c ****     __HAL_DMA_CLEAR_FLAG (hdma, __HAL_DMA_GET_DME_FLAG_INDEX(hdma));
 1539              		.loc 1 198 5 discriminator 124 view .LVU405
 1540 087a 02F58062 		add	r2, r2, #1024
 1541 087e 9342     		cmp	r3, r2
 1542 0880 02D0     		beq	.L317
 198:Drivers/STM32F4xx_HAL_Driver/Src/stm32f4xx_hal_dma_ex.c ****     __HAL_DMA_CLEAR_FLAG (hdma, __HAL_DMA_GET_DME_FLAG_INDEX(hdma));
 1543              		.loc 1 198 5 discriminator 127 view .LVU406
 1544 0882 4FF00073 		mov	r3, #33554432
 1545 0886 03E0     		b	.L42
 1546              	.L317:
 198:Drivers/STM32F4xx_HAL_Driver/Src/stm32f4xx_hal_dma_ex.c ****     __HAL_DMA_CLEAR_FLAG (hdma, __HAL_DMA_GET_DME_FLAG_INDEX(hdma));
 1547              		.loc 1 198 5 discriminator 126 view .LVU407
 1548 0888 4FF40023 		mov	r3, #524288
 1549 088c 00E0     		b	.L42
 1550              	.L183:
 198:Drivers/STM32F4xx_HAL_Driver/Src/stm32f4xx_hal_dma_ex.c ****     __HAL_DMA_CLEAR_FLAG (hdma, __HAL_DMA_GET_DME_FLAG_INDEX(hdma));
 1551              		.loc 1 198 5 discriminator 105 view .LVU408
 1552 088e 0823     		movs	r3, #8
 1553              	.L42:
 198:Drivers/STM32F4xx_HAL_Driver/Src/stm32f4xx_hal_dma_ex.c ****     __HAL_DMA_CLEAR_FLAG (hdma, __HAL_DMA_GET_DME_FLAG_INDEX(hdma));
 1554              		.loc 1 198 5 discriminator 151 view .LVU409
 1555 0890 0E4A     		ldr	r2, .L331+4
 1556 0892 D360     		str	r3, [r2, #12]
 1557 0894 0DE7     		b	.L38
 1558              	.L184:
 198:Drivers/STM32F4xx_HAL_Driver/Src/stm32f4xx_hal_dma_ex.c ****     __HAL_DMA_CLEAR_FLAG (hdma, __HAL_DMA_GET_DME_FLAG_INDEX(hdma));
 1559              		.loc 1 198 5 discriminator 107 view .LVU410
 1560 0896 0823     		movs	r3, #8
 1561 0898 FAE7     		b	.L42
 1562              	.L185:
 198:Drivers/STM32F4xx_HAL_Driver/Src/stm32f4xx_hal_dma_ex.c ****     __HAL_DMA_CLEAR_FLAG (hdma, __HAL_DMA_GET_DME_FLAG_INDEX(hdma));
 1563              		.loc 1 198 5 discriminator 109 view .LVU411
 1564 089a 0823     		movs	r3, #8
 1565 089c F8E7     		b	.L42
 1566              	.L186:
 198:Drivers/STM32F4xx_HAL_Driver/Src/stm32f4xx_hal_dma_ex.c ****     __HAL_DMA_CLEAR_FLAG (hdma, __HAL_DMA_GET_DME_FLAG_INDEX(hdma));
 1567              		.loc 1 198 5 discriminator 111 view .LVU412
 1568 089e 0823     		movs	r3, #8
 1569 08a0 F6E7     		b	.L42
 1570              	.L187:
 198:Drivers/STM32F4xx_HAL_Driver/Src/stm32f4xx_hal_dma_ex.c ****     __HAL_DMA_CLEAR_FLAG (hdma, __HAL_DMA_GET_DME_FLAG_INDEX(hdma));
 1571              		.loc 1 198 5 discriminator 113 view .LVU413
 1572 08a2 4FF40073 		mov	r3, #512
 1573 08a6 F3E7     		b	.L42
 1574              	.L188:
 198:Drivers/STM32F4xx_HAL_Driver/Src/stm32f4xx_hal_dma_ex.c ****     __HAL_DMA_CLEAR_FLAG (hdma, __HAL_DMA_GET_DME_FLAG_INDEX(hdma));
 1575              		.loc 1 198 5 discriminator 115 view .LVU414
 1576 08a8 4FF40073 		mov	r3, #512
 1577 08ac F0E7     		b	.L42
 1578              	.L189:
 198:Drivers/STM32F4xx_HAL_Driver/Src/stm32f4xx_hal_dma_ex.c ****     __HAL_DMA_CLEAR_FLAG (hdma, __HAL_DMA_GET_DME_FLAG_INDEX(hdma));
 1579              		.loc 1 198 5 discriminator 117 view .LVU415
 1580 08ae 4FF40073 		mov	r3, #512
 1581 08b2 EDE7     		b	.L42
 1582              	.L190:
 198:Drivers/STM32F4xx_HAL_Driver/Src/stm32f4xx_hal_dma_ex.c ****     __HAL_DMA_CLEAR_FLAG (hdma, __HAL_DMA_GET_DME_FLAG_INDEX(hdma));
 1583              		.loc 1 198 5 discriminator 119 view .LVU416
ARM GAS  /tmp/ccWA14hl.s 			page 41


 1584 08b4 4FF40073 		mov	r3, #512
 1585 08b8 EAE7     		b	.L42
 1586              	.L191:
 198:Drivers/STM32F4xx_HAL_Driver/Src/stm32f4xx_hal_dma_ex.c ****     __HAL_DMA_CLEAR_FLAG (hdma, __HAL_DMA_GET_DME_FLAG_INDEX(hdma));
 1587              		.loc 1 198 5 discriminator 121 view .LVU417
 1588 08ba 4FF40023 		mov	r3, #524288
 1589 08be E7E7     		b	.L42
 1590              	.L192:
 198:Drivers/STM32F4xx_HAL_Driver/Src/stm32f4xx_hal_dma_ex.c ****     __HAL_DMA_CLEAR_FLAG (hdma, __HAL_DMA_GET_DME_FLAG_INDEX(hdma));
 1591              		.loc 1 198 5 discriminator 123 view .LVU418
 1592 08c0 4FF40023 		mov	r3, #524288
 1593 08c4 E4E7     		b	.L42
 1594              	.L332:
 1595 08c6 00BF     		.align	2
 1596              	.L331:
 1597 08c8 10600240 		.word	1073897488
 1598 08cc 00600240 		.word	1073897472
 1599 08d0 00640240 		.word	1073898496
 1600 08d4 58640240 		.word	1073898584
 1601 08d8 B8600240 		.word	1073897656
 1602 08dc 58600240 		.word	1073897560
 1603              	.L193:
 198:Drivers/STM32F4xx_HAL_Driver/Src/stm32f4xx_hal_dma_ex.c ****     __HAL_DMA_CLEAR_FLAG (hdma, __HAL_DMA_GET_DME_FLAG_INDEX(hdma));
 1604              		.loc 1 198 5 discriminator 125 view .LVU419
 1605 08e0 4FF40023 		mov	r3, #524288
 1606 08e4 D4E7     		b	.L42
 1607              	.L41:
 198:Drivers/STM32F4xx_HAL_Driver/Src/stm32f4xx_hal_dma_ex.c ****     __HAL_DMA_CLEAR_FLAG (hdma, __HAL_DMA_GET_DME_FLAG_INDEX(hdma));
 1608              		.loc 1 198 5 discriminator 103 view .LVU420
 1609 08e6 B24A     		ldr	r2, .L333
 1610 08e8 9342     		cmp	r3, r2
 1611 08ea 31D0     		beq	.L195
 198:Drivers/STM32F4xx_HAL_Driver/Src/stm32f4xx_hal_dma_ex.c ****     __HAL_DMA_CLEAR_FLAG (hdma, __HAL_DMA_GET_DME_FLAG_INDEX(hdma));
 1612              		.loc 1 198 5 discriminator 153 view .LVU421
 1613 08ec 02F58062 		add	r2, r2, #1024
 1614 08f0 9342     		cmp	r3, r2
 1615 08f2 31D0     		beq	.L196
 198:Drivers/STM32F4xx_HAL_Driver/Src/stm32f4xx_hal_dma_ex.c ****     __HAL_DMA_CLEAR_FLAG (hdma, __HAL_DMA_GET_DME_FLAG_INDEX(hdma));
 1616              		.loc 1 198 5 discriminator 155 view .LVU422
 1617 08f4 A2F56872 		sub	r2, r2, #928
 1618 08f8 9342     		cmp	r3, r2
 1619 08fa 2FD0     		beq	.L197
 198:Drivers/STM32F4xx_HAL_Driver/Src/stm32f4xx_hal_dma_ex.c ****     __HAL_DMA_CLEAR_FLAG (hdma, __HAL_DMA_GET_DME_FLAG_INDEX(hdma));
 1620              		.loc 1 198 5 discriminator 157 view .LVU423
 1621 08fc 02F58062 		add	r2, r2, #1024
 1622 0900 9342     		cmp	r3, r2
 1623 0902 2DD0     		beq	.L198
 198:Drivers/STM32F4xx_HAL_Driver/Src/stm32f4xx_hal_dma_ex.c ****     __HAL_DMA_CLEAR_FLAG (hdma, __HAL_DMA_GET_DME_FLAG_INDEX(hdma));
 1624              		.loc 1 198 5 discriminator 159 view .LVU424
 1625 0904 A2F58962 		sub	r2, r2, #1096
 1626 0908 9342     		cmp	r3, r2
 1627 090a 2BD0     		beq	.L199
 198:Drivers/STM32F4xx_HAL_Driver/Src/stm32f4xx_hal_dma_ex.c ****     __HAL_DMA_CLEAR_FLAG (hdma, __HAL_DMA_GET_DME_FLAG_INDEX(hdma));
 1628              		.loc 1 198 5 discriminator 161 view .LVU425
 1629 090c 02F58062 		add	r2, r2, #1024
 1630 0910 9342     		cmp	r3, r2
 1631 0912 2AD0     		beq	.L200
ARM GAS  /tmp/ccWA14hl.s 			page 42


 198:Drivers/STM32F4xx_HAL_Driver/Src/stm32f4xx_hal_dma_ex.c ****     __HAL_DMA_CLEAR_FLAG (hdma, __HAL_DMA_GET_DME_FLAG_INDEX(hdma));
 1632              		.loc 1 198 5 discriminator 163 view .LVU426
 1633 0914 A2F56872 		sub	r2, r2, #928
 1634 0918 9342     		cmp	r3, r2
 1635 091a 29D0     		beq	.L201
 198:Drivers/STM32F4xx_HAL_Driver/Src/stm32f4xx_hal_dma_ex.c ****     __HAL_DMA_CLEAR_FLAG (hdma, __HAL_DMA_GET_DME_FLAG_INDEX(hdma));
 1636              		.loc 1 198 5 discriminator 165 view .LVU427
 1637 091c 02F58062 		add	r2, r2, #1024
 1638 0920 9342     		cmp	r3, r2
 1639 0922 28D0     		beq	.L202
 198:Drivers/STM32F4xx_HAL_Driver/Src/stm32f4xx_hal_dma_ex.c ****     __HAL_DMA_CLEAR_FLAG (hdma, __HAL_DMA_GET_DME_FLAG_INDEX(hdma));
 1640              		.loc 1 198 5 discriminator 167 view .LVU428
 1641 0924 A2F58962 		sub	r2, r2, #1096
 1642 0928 9342     		cmp	r3, r2
 1643 092a 27D0     		beq	.L203
 198:Drivers/STM32F4xx_HAL_Driver/Src/stm32f4xx_hal_dma_ex.c ****     __HAL_DMA_CLEAR_FLAG (hdma, __HAL_DMA_GET_DME_FLAG_INDEX(hdma));
 1644              		.loc 1 198 5 discriminator 169 view .LVU429
 1645 092c 02F58062 		add	r2, r2, #1024
 1646 0930 9342     		cmp	r3, r2
 1647 0932 26D0     		beq	.L204
 198:Drivers/STM32F4xx_HAL_Driver/Src/stm32f4xx_hal_dma_ex.c ****     __HAL_DMA_CLEAR_FLAG (hdma, __HAL_DMA_GET_DME_FLAG_INDEX(hdma));
 1648              		.loc 1 198 5 discriminator 171 view .LVU430
 1649 0934 A2F56872 		sub	r2, r2, #928
 1650 0938 9342     		cmp	r3, r2
 1651 093a 25D0     		beq	.L205
 198:Drivers/STM32F4xx_HAL_Driver/Src/stm32f4xx_hal_dma_ex.c ****     __HAL_DMA_CLEAR_FLAG (hdma, __HAL_DMA_GET_DME_FLAG_INDEX(hdma));
 1652              		.loc 1 198 5 discriminator 173 view .LVU431
 1653 093c 02F58062 		add	r2, r2, #1024
 1654 0940 9342     		cmp	r3, r2
 1655 0942 02D0     		beq	.L318
 198:Drivers/STM32F4xx_HAL_Driver/Src/stm32f4xx_hal_dma_ex.c ****     __HAL_DMA_CLEAR_FLAG (hdma, __HAL_DMA_GET_DME_FLAG_INDEX(hdma));
 1656              		.loc 1 198 5 discriminator 176 view .LVU432
 1657 0944 4FF00073 		mov	r3, #33554432
 1658 0948 03E0     		b	.L43
 1659              	.L318:
 198:Drivers/STM32F4xx_HAL_Driver/Src/stm32f4xx_hal_dma_ex.c ****     __HAL_DMA_CLEAR_FLAG (hdma, __HAL_DMA_GET_DME_FLAG_INDEX(hdma));
 1660              		.loc 1 198 5 discriminator 175 view .LVU433
 1661 094a 4FF40023 		mov	r3, #524288
 1662 094e 00E0     		b	.L43
 1663              	.L195:
 198:Drivers/STM32F4xx_HAL_Driver/Src/stm32f4xx_hal_dma_ex.c ****     __HAL_DMA_CLEAR_FLAG (hdma, __HAL_DMA_GET_DME_FLAG_INDEX(hdma));
 1664              		.loc 1 198 5 discriminator 154 view .LVU434
 1665 0950 0823     		movs	r3, #8
 1666              	.L43:
 198:Drivers/STM32F4xx_HAL_Driver/Src/stm32f4xx_hal_dma_ex.c ****     __HAL_DMA_CLEAR_FLAG (hdma, __HAL_DMA_GET_DME_FLAG_INDEX(hdma));
 1667              		.loc 1 198 5 discriminator 200 view .LVU435
 1668 0952 984A     		ldr	r2, .L333+4
 1669 0954 9360     		str	r3, [r2, #8]
 1670 0956 ACE6     		b	.L38
 1671              	.L196:
 198:Drivers/STM32F4xx_HAL_Driver/Src/stm32f4xx_hal_dma_ex.c ****     __HAL_DMA_CLEAR_FLAG (hdma, __HAL_DMA_GET_DME_FLAG_INDEX(hdma));
 1672              		.loc 1 198 5 discriminator 156 view .LVU436
 1673 0958 0823     		movs	r3, #8
 1674 095a FAE7     		b	.L43
 1675              	.L197:
 198:Drivers/STM32F4xx_HAL_Driver/Src/stm32f4xx_hal_dma_ex.c ****     __HAL_DMA_CLEAR_FLAG (hdma, __HAL_DMA_GET_DME_FLAG_INDEX(hdma));
 1676              		.loc 1 198 5 discriminator 158 view .LVU437
ARM GAS  /tmp/ccWA14hl.s 			page 43


 1677 095c 0823     		movs	r3, #8
 1678 095e F8E7     		b	.L43
 1679              	.L198:
 198:Drivers/STM32F4xx_HAL_Driver/Src/stm32f4xx_hal_dma_ex.c ****     __HAL_DMA_CLEAR_FLAG (hdma, __HAL_DMA_GET_DME_FLAG_INDEX(hdma));
 1680              		.loc 1 198 5 discriminator 160 view .LVU438
 1681 0960 0823     		movs	r3, #8
 1682 0962 F6E7     		b	.L43
 1683              	.L199:
 198:Drivers/STM32F4xx_HAL_Driver/Src/stm32f4xx_hal_dma_ex.c ****     __HAL_DMA_CLEAR_FLAG (hdma, __HAL_DMA_GET_DME_FLAG_INDEX(hdma));
 1684              		.loc 1 198 5 discriminator 162 view .LVU439
 1685 0964 4FF40073 		mov	r3, #512
 1686 0968 F3E7     		b	.L43
 1687              	.L200:
 198:Drivers/STM32F4xx_HAL_Driver/Src/stm32f4xx_hal_dma_ex.c ****     __HAL_DMA_CLEAR_FLAG (hdma, __HAL_DMA_GET_DME_FLAG_INDEX(hdma));
 1688              		.loc 1 198 5 discriminator 164 view .LVU440
 1689 096a 4FF40073 		mov	r3, #512
 1690 096e F0E7     		b	.L43
 1691              	.L201:
 198:Drivers/STM32F4xx_HAL_Driver/Src/stm32f4xx_hal_dma_ex.c ****     __HAL_DMA_CLEAR_FLAG (hdma, __HAL_DMA_GET_DME_FLAG_INDEX(hdma));
 1692              		.loc 1 198 5 discriminator 166 view .LVU441
 1693 0970 4FF40073 		mov	r3, #512
 1694 0974 EDE7     		b	.L43
 1695              	.L202:
 198:Drivers/STM32F4xx_HAL_Driver/Src/stm32f4xx_hal_dma_ex.c ****     __HAL_DMA_CLEAR_FLAG (hdma, __HAL_DMA_GET_DME_FLAG_INDEX(hdma));
 1696              		.loc 1 198 5 discriminator 168 view .LVU442
 1697 0976 4FF40073 		mov	r3, #512
 1698 097a EAE7     		b	.L43
 1699              	.L203:
 198:Drivers/STM32F4xx_HAL_Driver/Src/stm32f4xx_hal_dma_ex.c ****     __HAL_DMA_CLEAR_FLAG (hdma, __HAL_DMA_GET_DME_FLAG_INDEX(hdma));
 1700              		.loc 1 198 5 discriminator 170 view .LVU443
 1701 097c 4FF40023 		mov	r3, #524288
 1702 0980 E7E7     		b	.L43
 1703              	.L204:
 198:Drivers/STM32F4xx_HAL_Driver/Src/stm32f4xx_hal_dma_ex.c ****     __HAL_DMA_CLEAR_FLAG (hdma, __HAL_DMA_GET_DME_FLAG_INDEX(hdma));
 1704              		.loc 1 198 5 discriminator 172 view .LVU444
 1705 0982 4FF40023 		mov	r3, #524288
 1706 0986 E4E7     		b	.L43
 1707              	.L205:
 198:Drivers/STM32F4xx_HAL_Driver/Src/stm32f4xx_hal_dma_ex.c ****     __HAL_DMA_CLEAR_FLAG (hdma, __HAL_DMA_GET_DME_FLAG_INDEX(hdma));
 1708              		.loc 1 198 5 discriminator 174 view .LVU445
 1709 0988 4FF40023 		mov	r3, #524288
 1710 098c E1E7     		b	.L43
 1711              	.L315:
 199:Drivers/STM32F4xx_HAL_Driver/Src/stm32f4xx_hal_dma_ex.c ****     __HAL_DMA_CLEAR_FLAG (hdma, __HAL_DMA_GET_FE_FLAG_INDEX(hdma));
 1712              		.loc 1 199 5 discriminator 25 view .LVU446
 1713 098e 4FF48022 		mov	r2, #262144
 1714 0992 00E0     		b	.L45
 1715              	.L207:
 199:Drivers/STM32F4xx_HAL_Driver/Src/stm32f4xx_hal_dma_ex.c ****     __HAL_DMA_CLEAR_FLAG (hdma, __HAL_DMA_GET_FE_FLAG_INDEX(hdma));
 1716              		.loc 1 199 5 discriminator 4 view .LVU447
 1717 0994 0422     		movs	r2, #4
 1718              	.L45:
 199:Drivers/STM32F4xx_HAL_Driver/Src/stm32f4xx_hal_dma_ex.c ****     __HAL_DMA_CLEAR_FLAG (hdma, __HAL_DMA_GET_FE_FLAG_INDEX(hdma));
 1719              		.loc 1 199 5 discriminator 50 view .LVU448
 1720 0996 884B     		ldr	r3, .L333+8
 1721 0998 DA60     		str	r2, [r3, #12]
 1722              	.L46:
ARM GAS  /tmp/ccWA14hl.s 			page 44


 200:Drivers/STM32F4xx_HAL_Driver/Src/stm32f4xx_hal_dma_ex.c **** 
 1723              		.loc 1 200 5 is_stmt 1 view .LVU449
 1724 099a 2368     		ldr	r3, [r4]
 1725 099c 874A     		ldr	r2, .L333+12
 1726 099e 9342     		cmp	r3, r2
 1727 09a0 40F2A181 		bls	.L52
 200:Drivers/STM32F4xx_HAL_Driver/Src/stm32f4xx_hal_dma_ex.c **** 
 1728              		.loc 1 200 5 is_stmt 0 discriminator 1 view .LVU450
 1729 09a4 A2F58962 		sub	r2, r2, #1096
 1730 09a8 9342     		cmp	r3, r2
 1731 09aa 00F06781 		beq	.L255
 200:Drivers/STM32F4xx_HAL_Driver/Src/stm32f4xx_hal_dma_ex.c **** 
 1732              		.loc 1 200 5 discriminator 3 view .LVU451
 1733 09ae 02F58062 		add	r2, r2, #1024
 1734 09b2 9342     		cmp	r3, r2
 1735 09b4 00F08081 		beq	.L256
 200:Drivers/STM32F4xx_HAL_Driver/Src/stm32f4xx_hal_dma_ex.c **** 
 1736              		.loc 1 200 5 discriminator 5 view .LVU452
 1737 09b8 A2F56872 		sub	r2, r2, #928
 1738 09bc 9342     		cmp	r3, r2
 1739 09be 00F07D81 		beq	.L257
 200:Drivers/STM32F4xx_HAL_Driver/Src/stm32f4xx_hal_dma_ex.c **** 
 1740              		.loc 1 200 5 discriminator 7 view .LVU453
 1741 09c2 02F58062 		add	r2, r2, #1024
 1742 09c6 9342     		cmp	r3, r2
 1743 09c8 00F07A81 		beq	.L258
 200:Drivers/STM32F4xx_HAL_Driver/Src/stm32f4xx_hal_dma_ex.c **** 
 1744              		.loc 1 200 5 discriminator 9 view .LVU454
 1745 09cc A2F58962 		sub	r2, r2, #1096
 1746 09d0 9342     		cmp	r3, r2
 1747 09d2 00F07781 		beq	.L259
 200:Drivers/STM32F4xx_HAL_Driver/Src/stm32f4xx_hal_dma_ex.c **** 
 1748              		.loc 1 200 5 discriminator 11 view .LVU455
 1749 09d6 02F58062 		add	r2, r2, #1024
 1750 09da 9342     		cmp	r3, r2
 1751 09dc 00F07481 		beq	.L260
 200:Drivers/STM32F4xx_HAL_Driver/Src/stm32f4xx_hal_dma_ex.c **** 
 1752              		.loc 1 200 5 discriminator 13 view .LVU456
 1753 09e0 A2F56872 		sub	r2, r2, #928
 1754 09e4 9342     		cmp	r3, r2
 1755 09e6 00F07181 		beq	.L261
 200:Drivers/STM32F4xx_HAL_Driver/Src/stm32f4xx_hal_dma_ex.c **** 
 1756              		.loc 1 200 5 discriminator 15 view .LVU457
 1757 09ea 02F58062 		add	r2, r2, #1024
 1758 09ee 9342     		cmp	r3, r2
 1759 09f0 00F06E81 		beq	.L262
 200:Drivers/STM32F4xx_HAL_Driver/Src/stm32f4xx_hal_dma_ex.c **** 
 1760              		.loc 1 200 5 discriminator 17 view .LVU458
 1761 09f4 A2F58962 		sub	r2, r2, #1096
 1762 09f8 9342     		cmp	r3, r2
 1763 09fa 00F06B81 		beq	.L263
 200:Drivers/STM32F4xx_HAL_Driver/Src/stm32f4xx_hal_dma_ex.c **** 
 1764              		.loc 1 200 5 discriminator 19 view .LVU459
 1765 09fe 02F58062 		add	r2, r2, #1024
 1766 0a02 9342     		cmp	r3, r2
 1767 0a04 00F06981 		beq	.L264
 200:Drivers/STM32F4xx_HAL_Driver/Src/stm32f4xx_hal_dma_ex.c **** 
ARM GAS  /tmp/ccWA14hl.s 			page 45


 1768              		.loc 1 200 5 discriminator 21 view .LVU460
 1769 0a08 A2F56872 		sub	r2, r2, #928
 1770 0a0c 9342     		cmp	r3, r2
 1771 0a0e 00F06781 		beq	.L265
 200:Drivers/STM32F4xx_HAL_Driver/Src/stm32f4xx_hal_dma_ex.c **** 
 1772              		.loc 1 200 5 discriminator 23 view .LVU461
 1773 0a12 02F58062 		add	r2, r2, #1024
 1774 0a16 9342     		cmp	r3, r2
 1775 0a18 00F02D81 		beq	.L319
 200:Drivers/STM32F4xx_HAL_Driver/Src/stm32f4xx_hal_dma_ex.c **** 
 1776              		.loc 1 200 5 discriminator 26 view .LVU462
 1777 0a1c 4FF48002 		mov	r2, #4194304
 1778 0a20 2DE1     		b	.L53
 1779              	.L208:
 199:Drivers/STM32F4xx_HAL_Driver/Src/stm32f4xx_hal_dma_ex.c ****     __HAL_DMA_CLEAR_FLAG (hdma, __HAL_DMA_GET_FE_FLAG_INDEX(hdma));
 1780              		.loc 1 199 5 discriminator 6 view .LVU463
 1781 0a22 0422     		movs	r2, #4
 1782 0a24 B7E7     		b	.L45
 1783              	.L209:
 199:Drivers/STM32F4xx_HAL_Driver/Src/stm32f4xx_hal_dma_ex.c ****     __HAL_DMA_CLEAR_FLAG (hdma, __HAL_DMA_GET_FE_FLAG_INDEX(hdma));
 1784              		.loc 1 199 5 discriminator 8 view .LVU464
 1785 0a26 0422     		movs	r2, #4
 1786 0a28 B5E7     		b	.L45
 1787              	.L210:
 199:Drivers/STM32F4xx_HAL_Driver/Src/stm32f4xx_hal_dma_ex.c ****     __HAL_DMA_CLEAR_FLAG (hdma, __HAL_DMA_GET_FE_FLAG_INDEX(hdma));
 1788              		.loc 1 199 5 discriminator 10 view .LVU465
 1789 0a2a 0422     		movs	r2, #4
 1790 0a2c B3E7     		b	.L45
 1791              	.L211:
 199:Drivers/STM32F4xx_HAL_Driver/Src/stm32f4xx_hal_dma_ex.c ****     __HAL_DMA_CLEAR_FLAG (hdma, __HAL_DMA_GET_FE_FLAG_INDEX(hdma));
 1792              		.loc 1 199 5 discriminator 12 view .LVU466
 1793 0a2e 4FF48072 		mov	r2, #256
 1794 0a32 B0E7     		b	.L45
 1795              	.L212:
 199:Drivers/STM32F4xx_HAL_Driver/Src/stm32f4xx_hal_dma_ex.c ****     __HAL_DMA_CLEAR_FLAG (hdma, __HAL_DMA_GET_FE_FLAG_INDEX(hdma));
 1796              		.loc 1 199 5 discriminator 14 view .LVU467
 1797 0a34 4FF48072 		mov	r2, #256
 1798 0a38 ADE7     		b	.L45
 1799              	.L213:
 199:Drivers/STM32F4xx_HAL_Driver/Src/stm32f4xx_hal_dma_ex.c ****     __HAL_DMA_CLEAR_FLAG (hdma, __HAL_DMA_GET_FE_FLAG_INDEX(hdma));
 1800              		.loc 1 199 5 discriminator 16 view .LVU468
 1801 0a3a 4FF48072 		mov	r2, #256
 1802 0a3e AAE7     		b	.L45
 1803              	.L214:
 199:Drivers/STM32F4xx_HAL_Driver/Src/stm32f4xx_hal_dma_ex.c ****     __HAL_DMA_CLEAR_FLAG (hdma, __HAL_DMA_GET_FE_FLAG_INDEX(hdma));
 1804              		.loc 1 199 5 discriminator 18 view .LVU469
 1805 0a40 4FF48072 		mov	r2, #256
 1806 0a44 A7E7     		b	.L45
 1807              	.L215:
 199:Drivers/STM32F4xx_HAL_Driver/Src/stm32f4xx_hal_dma_ex.c ****     __HAL_DMA_CLEAR_FLAG (hdma, __HAL_DMA_GET_FE_FLAG_INDEX(hdma));
 1808              		.loc 1 199 5 discriminator 20 view .LVU470
 1809 0a46 4FF48022 		mov	r2, #262144
 1810 0a4a A4E7     		b	.L45
 1811              	.L216:
 199:Drivers/STM32F4xx_HAL_Driver/Src/stm32f4xx_hal_dma_ex.c ****     __HAL_DMA_CLEAR_FLAG (hdma, __HAL_DMA_GET_FE_FLAG_INDEX(hdma));
 1812              		.loc 1 199 5 discriminator 22 view .LVU471
 1813 0a4c 4FF48022 		mov	r2, #262144
ARM GAS  /tmp/ccWA14hl.s 			page 46


 1814 0a50 A1E7     		b	.L45
 1815              	.L217:
 199:Drivers/STM32F4xx_HAL_Driver/Src/stm32f4xx_hal_dma_ex.c ****     __HAL_DMA_CLEAR_FLAG (hdma, __HAL_DMA_GET_FE_FLAG_INDEX(hdma));
 1816              		.loc 1 199 5 discriminator 24 view .LVU472
 1817 0a52 4FF48022 		mov	r2, #262144
 1818 0a56 9EE7     		b	.L45
 1819              	.L44:
 199:Drivers/STM32F4xx_HAL_Driver/Src/stm32f4xx_hal_dma_ex.c ****     __HAL_DMA_CLEAR_FLAG (hdma, __HAL_DMA_GET_FE_FLAG_INDEX(hdma));
 1820              		.loc 1 199 5 discriminator 2 view .LVU473
 1821 0a58 594A     		ldr	r2, .L333+16
 1822 0a5a 9342     		cmp	r3, r2
 1823 0a5c 53D9     		bls	.L47
 199:Drivers/STM32F4xx_HAL_Driver/Src/stm32f4xx_hal_dma_ex.c ****     __HAL_DMA_CLEAR_FLAG (hdma, __HAL_DMA_GET_FE_FLAG_INDEX(hdma));
 1824              		.loc 1 199 5 discriminator 51 view .LVU474
 1825 0a5e A83A     		subs	r2, r2, #168
 1826 0a60 9342     		cmp	r3, r2
 1827 0a62 31D0     		beq	.L219
 199:Drivers/STM32F4xx_HAL_Driver/Src/stm32f4xx_hal_dma_ex.c ****     __HAL_DMA_CLEAR_FLAG (hdma, __HAL_DMA_GET_FE_FLAG_INDEX(hdma));
 1828              		.loc 1 199 5 discriminator 53 view .LVU475
 1829 0a64 02F58062 		add	r2, r2, #1024
 1830 0a68 9342     		cmp	r3, r2
 1831 0a6a 31D0     		beq	.L220
 199:Drivers/STM32F4xx_HAL_Driver/Src/stm32f4xx_hal_dma_ex.c ****     __HAL_DMA_CLEAR_FLAG (hdma, __HAL_DMA_GET_FE_FLAG_INDEX(hdma));
 1832              		.loc 1 199 5 discriminator 55 view .LVU476
 1833 0a6c A2F56872 		sub	r2, r2, #928
 1834 0a70 9342     		cmp	r3, r2
 1835 0a72 2FD0     		beq	.L221
 199:Drivers/STM32F4xx_HAL_Driver/Src/stm32f4xx_hal_dma_ex.c ****     __HAL_DMA_CLEAR_FLAG (hdma, __HAL_DMA_GET_FE_FLAG_INDEX(hdma));
 1836              		.loc 1 199 5 discriminator 57 view .LVU477
 1837 0a74 02F58062 		add	r2, r2, #1024
 1838 0a78 9342     		cmp	r3, r2
 1839 0a7a 2DD0     		beq	.L222
 199:Drivers/STM32F4xx_HAL_Driver/Src/stm32f4xx_hal_dma_ex.c ****     __HAL_DMA_CLEAR_FLAG (hdma, __HAL_DMA_GET_FE_FLAG_INDEX(hdma));
 1840              		.loc 1 199 5 discriminator 59 view .LVU478
 1841 0a7c A2F58962 		sub	r2, r2, #1096
 1842 0a80 9342     		cmp	r3, r2
 1843 0a82 2BD0     		beq	.L223
 199:Drivers/STM32F4xx_HAL_Driver/Src/stm32f4xx_hal_dma_ex.c ****     __HAL_DMA_CLEAR_FLAG (hdma, __HAL_DMA_GET_FE_FLAG_INDEX(hdma));
 1844              		.loc 1 199 5 discriminator 61 view .LVU479
 1845 0a84 02F58062 		add	r2, r2, #1024
 1846 0a88 9342     		cmp	r3, r2
 1847 0a8a 2AD0     		beq	.L224
 199:Drivers/STM32F4xx_HAL_Driver/Src/stm32f4xx_hal_dma_ex.c ****     __HAL_DMA_CLEAR_FLAG (hdma, __HAL_DMA_GET_FE_FLAG_INDEX(hdma));
 1848              		.loc 1 199 5 discriminator 63 view .LVU480
 1849 0a8c A2F56872 		sub	r2, r2, #928
 1850 0a90 9342     		cmp	r3, r2
 1851 0a92 29D0     		beq	.L225
 199:Drivers/STM32F4xx_HAL_Driver/Src/stm32f4xx_hal_dma_ex.c ****     __HAL_DMA_CLEAR_FLAG (hdma, __HAL_DMA_GET_FE_FLAG_INDEX(hdma));
 1852              		.loc 1 199 5 discriminator 65 view .LVU481
 1853 0a94 02F58062 		add	r2, r2, #1024
 1854 0a98 9342     		cmp	r3, r2
 1855 0a9a 28D0     		beq	.L226
 199:Drivers/STM32F4xx_HAL_Driver/Src/stm32f4xx_hal_dma_ex.c ****     __HAL_DMA_CLEAR_FLAG (hdma, __HAL_DMA_GET_FE_FLAG_INDEX(hdma));
 1856              		.loc 1 199 5 discriminator 67 view .LVU482
 1857 0a9c A2F58962 		sub	r2, r2, #1096
 1858 0aa0 9342     		cmp	r3, r2
 1859 0aa2 27D0     		beq	.L227
ARM GAS  /tmp/ccWA14hl.s 			page 47


 199:Drivers/STM32F4xx_HAL_Driver/Src/stm32f4xx_hal_dma_ex.c ****     __HAL_DMA_CLEAR_FLAG (hdma, __HAL_DMA_GET_FE_FLAG_INDEX(hdma));
 1860              		.loc 1 199 5 discriminator 69 view .LVU483
 1861 0aa4 02F58062 		add	r2, r2, #1024
 1862 0aa8 9342     		cmp	r3, r2
 1863 0aaa 26D0     		beq	.L228
 199:Drivers/STM32F4xx_HAL_Driver/Src/stm32f4xx_hal_dma_ex.c ****     __HAL_DMA_CLEAR_FLAG (hdma, __HAL_DMA_GET_FE_FLAG_INDEX(hdma));
 1864              		.loc 1 199 5 discriminator 71 view .LVU484
 1865 0aac A2F56872 		sub	r2, r2, #928
 1866 0ab0 9342     		cmp	r3, r2
 1867 0ab2 25D0     		beq	.L229
 199:Drivers/STM32F4xx_HAL_Driver/Src/stm32f4xx_hal_dma_ex.c ****     __HAL_DMA_CLEAR_FLAG (hdma, __HAL_DMA_GET_FE_FLAG_INDEX(hdma));
 1868              		.loc 1 199 5 discriminator 73 view .LVU485
 1869 0ab4 02F58062 		add	r2, r2, #1024
 1870 0ab8 9342     		cmp	r3, r2
 1871 0aba 02D0     		beq	.L320
 199:Drivers/STM32F4xx_HAL_Driver/Src/stm32f4xx_hal_dma_ex.c ****     __HAL_DMA_CLEAR_FLAG (hdma, __HAL_DMA_GET_FE_FLAG_INDEX(hdma));
 1872              		.loc 1 199 5 discriminator 76 view .LVU486
 1873 0abc 4FF08073 		mov	r3, #16777216
 1874 0ac0 03E0     		b	.L48
 1875              	.L320:
 199:Drivers/STM32F4xx_HAL_Driver/Src/stm32f4xx_hal_dma_ex.c ****     __HAL_DMA_CLEAR_FLAG (hdma, __HAL_DMA_GET_FE_FLAG_INDEX(hdma));
 1876              		.loc 1 199 5 discriminator 75 view .LVU487
 1877 0ac2 4FF48023 		mov	r3, #262144
 1878 0ac6 00E0     		b	.L48
 1879              	.L219:
 199:Drivers/STM32F4xx_HAL_Driver/Src/stm32f4xx_hal_dma_ex.c ****     __HAL_DMA_CLEAR_FLAG (hdma, __HAL_DMA_GET_FE_FLAG_INDEX(hdma));
 1880              		.loc 1 199 5 discriminator 54 view .LVU488
 1881 0ac8 0423     		movs	r3, #4
 1882              	.L48:
 199:Drivers/STM32F4xx_HAL_Driver/Src/stm32f4xx_hal_dma_ex.c ****     __HAL_DMA_CLEAR_FLAG (hdma, __HAL_DMA_GET_FE_FLAG_INDEX(hdma));
 1883              		.loc 1 199 5 discriminator 100 view .LVU489
 1884 0aca 3B4A     		ldr	r2, .L333+8
 1885 0acc 9360     		str	r3, [r2, #8]
 1886 0ace 64E7     		b	.L46
 1887              	.L220:
 199:Drivers/STM32F4xx_HAL_Driver/Src/stm32f4xx_hal_dma_ex.c ****     __HAL_DMA_CLEAR_FLAG (hdma, __HAL_DMA_GET_FE_FLAG_INDEX(hdma));
 1888              		.loc 1 199 5 discriminator 56 view .LVU490
 1889 0ad0 0423     		movs	r3, #4
 1890 0ad2 FAE7     		b	.L48
 1891              	.L221:
 199:Drivers/STM32F4xx_HAL_Driver/Src/stm32f4xx_hal_dma_ex.c ****     __HAL_DMA_CLEAR_FLAG (hdma, __HAL_DMA_GET_FE_FLAG_INDEX(hdma));
 1892              		.loc 1 199 5 discriminator 58 view .LVU491
 1893 0ad4 0423     		movs	r3, #4
 1894 0ad6 F8E7     		b	.L48
 1895              	.L222:
 199:Drivers/STM32F4xx_HAL_Driver/Src/stm32f4xx_hal_dma_ex.c ****     __HAL_DMA_CLEAR_FLAG (hdma, __HAL_DMA_GET_FE_FLAG_INDEX(hdma));
 1896              		.loc 1 199 5 discriminator 60 view .LVU492
 1897 0ad8 0423     		movs	r3, #4
 1898 0ada F6E7     		b	.L48
 1899              	.L223:
 199:Drivers/STM32F4xx_HAL_Driver/Src/stm32f4xx_hal_dma_ex.c ****     __HAL_DMA_CLEAR_FLAG (hdma, __HAL_DMA_GET_FE_FLAG_INDEX(hdma));
 1900              		.loc 1 199 5 discriminator 62 view .LVU493
 1901 0adc 4FF48073 		mov	r3, #256
 1902 0ae0 F3E7     		b	.L48
 1903              	.L224:
 199:Drivers/STM32F4xx_HAL_Driver/Src/stm32f4xx_hal_dma_ex.c ****     __HAL_DMA_CLEAR_FLAG (hdma, __HAL_DMA_GET_FE_FLAG_INDEX(hdma));
 1904              		.loc 1 199 5 discriminator 64 view .LVU494
ARM GAS  /tmp/ccWA14hl.s 			page 48


 1905 0ae2 4FF48073 		mov	r3, #256
 1906 0ae6 F0E7     		b	.L48
 1907              	.L225:
 199:Drivers/STM32F4xx_HAL_Driver/Src/stm32f4xx_hal_dma_ex.c ****     __HAL_DMA_CLEAR_FLAG (hdma, __HAL_DMA_GET_FE_FLAG_INDEX(hdma));
 1908              		.loc 1 199 5 discriminator 66 view .LVU495
 1909 0ae8 4FF48073 		mov	r3, #256
 1910 0aec EDE7     		b	.L48
 1911              	.L226:
 199:Drivers/STM32F4xx_HAL_Driver/Src/stm32f4xx_hal_dma_ex.c ****     __HAL_DMA_CLEAR_FLAG (hdma, __HAL_DMA_GET_FE_FLAG_INDEX(hdma));
 1912              		.loc 1 199 5 discriminator 68 view .LVU496
 1913 0aee 4FF48073 		mov	r3, #256
 1914 0af2 EAE7     		b	.L48
 1915              	.L227:
 199:Drivers/STM32F4xx_HAL_Driver/Src/stm32f4xx_hal_dma_ex.c ****     __HAL_DMA_CLEAR_FLAG (hdma, __HAL_DMA_GET_FE_FLAG_INDEX(hdma));
 1916              		.loc 1 199 5 discriminator 70 view .LVU497
 1917 0af4 4FF48023 		mov	r3, #262144
 1918 0af8 E7E7     		b	.L48
 1919              	.L228:
 199:Drivers/STM32F4xx_HAL_Driver/Src/stm32f4xx_hal_dma_ex.c ****     __HAL_DMA_CLEAR_FLAG (hdma, __HAL_DMA_GET_FE_FLAG_INDEX(hdma));
 1920              		.loc 1 199 5 discriminator 72 view .LVU498
 1921 0afa 4FF48023 		mov	r3, #262144
 1922 0afe E4E7     		b	.L48
 1923              	.L229:
 199:Drivers/STM32F4xx_HAL_Driver/Src/stm32f4xx_hal_dma_ex.c ****     __HAL_DMA_CLEAR_FLAG (hdma, __HAL_DMA_GET_FE_FLAG_INDEX(hdma));
 1924              		.loc 1 199 5 discriminator 74 view .LVU499
 1925 0b00 4FF48023 		mov	r3, #262144
 1926 0b04 E1E7     		b	.L48
 1927              	.L47:
 199:Drivers/STM32F4xx_HAL_Driver/Src/stm32f4xx_hal_dma_ex.c ****     __HAL_DMA_CLEAR_FLAG (hdma, __HAL_DMA_GET_FE_FLAG_INDEX(hdma));
 1928              		.loc 1 199 5 discriminator 52 view .LVU500
 1929 0b06 2F4A     		ldr	r2, .L333+20
 1930 0b08 9342     		cmp	r3, r2
 1931 0b0a 60D9     		bls	.L49
 199:Drivers/STM32F4xx_HAL_Driver/Src/stm32f4xx_hal_dma_ex.c ****     __HAL_DMA_CLEAR_FLAG (hdma, __HAL_DMA_GET_FE_FLAG_INDEX(hdma));
 1932              		.loc 1 199 5 discriminator 102 view .LVU501
 1933 0b0c 483A     		subs	r2, r2, #72
 1934 0b0e 9342     		cmp	r3, r2
 1935 0b10 31D0     		beq	.L231
 199:Drivers/STM32F4xx_HAL_Driver/Src/stm32f4xx_hal_dma_ex.c ****     __HAL_DMA_CLEAR_FLAG (hdma, __HAL_DMA_GET_FE_FLAG_INDEX(hdma));
 1936              		.loc 1 199 5 discriminator 104 view .LVU502
 1937 0b12 02F58062 		add	r2, r2, #1024
 1938 0b16 9342     		cmp	r3, r2
 1939 0b18 31D0     		beq	.L232
 199:Drivers/STM32F4xx_HAL_Driver/Src/stm32f4xx_hal_dma_ex.c ****     __HAL_DMA_CLEAR_FLAG (hdma, __HAL_DMA_GET_FE_FLAG_INDEX(hdma));
 1940              		.loc 1 199 5 discriminator 106 view .LVU503
 1941 0b1a A2F56872 		sub	r2, r2, #928
 1942 0b1e 9342     		cmp	r3, r2
 1943 0b20 2FD0     		beq	.L233
 199:Drivers/STM32F4xx_HAL_Driver/Src/stm32f4xx_hal_dma_ex.c ****     __HAL_DMA_CLEAR_FLAG (hdma, __HAL_DMA_GET_FE_FLAG_INDEX(hdma));
 1944              		.loc 1 199 5 discriminator 108 view .LVU504
 1945 0b22 02F58062 		add	r2, r2, #1024
 1946 0b26 9342     		cmp	r3, r2
 1947 0b28 2DD0     		beq	.L234
 199:Drivers/STM32F4xx_HAL_Driver/Src/stm32f4xx_hal_dma_ex.c ****     __HAL_DMA_CLEAR_FLAG (hdma, __HAL_DMA_GET_FE_FLAG_INDEX(hdma));
 1948              		.loc 1 199 5 discriminator 110 view .LVU505
 1949 0b2a A2F58962 		sub	r2, r2, #1096
 1950 0b2e 9342     		cmp	r3, r2
ARM GAS  /tmp/ccWA14hl.s 			page 49


 1951 0b30 2BD0     		beq	.L235
 199:Drivers/STM32F4xx_HAL_Driver/Src/stm32f4xx_hal_dma_ex.c ****     __HAL_DMA_CLEAR_FLAG (hdma, __HAL_DMA_GET_FE_FLAG_INDEX(hdma));
 1952              		.loc 1 199 5 discriminator 112 view .LVU506
 1953 0b32 02F58062 		add	r2, r2, #1024
 1954 0b36 9342     		cmp	r3, r2
 1955 0b38 2AD0     		beq	.L236
 199:Drivers/STM32F4xx_HAL_Driver/Src/stm32f4xx_hal_dma_ex.c ****     __HAL_DMA_CLEAR_FLAG (hdma, __HAL_DMA_GET_FE_FLAG_INDEX(hdma));
 1956              		.loc 1 199 5 discriminator 114 view .LVU507
 1957 0b3a A2F56872 		sub	r2, r2, #928
 1958 0b3e 9342     		cmp	r3, r2
 1959 0b40 29D0     		beq	.L237
 199:Drivers/STM32F4xx_HAL_Driver/Src/stm32f4xx_hal_dma_ex.c ****     __HAL_DMA_CLEAR_FLAG (hdma, __HAL_DMA_GET_FE_FLAG_INDEX(hdma));
 1960              		.loc 1 199 5 discriminator 116 view .LVU508
 1961 0b42 02F58062 		add	r2, r2, #1024
 1962 0b46 9342     		cmp	r3, r2
 1963 0b48 28D0     		beq	.L238
 199:Drivers/STM32F4xx_HAL_Driver/Src/stm32f4xx_hal_dma_ex.c ****     __HAL_DMA_CLEAR_FLAG (hdma, __HAL_DMA_GET_FE_FLAG_INDEX(hdma));
 1964              		.loc 1 199 5 discriminator 118 view .LVU509
 1965 0b4a A2F58962 		sub	r2, r2, #1096
 1966 0b4e 9342     		cmp	r3, r2
 1967 0b50 27D0     		beq	.L239
 199:Drivers/STM32F4xx_HAL_Driver/Src/stm32f4xx_hal_dma_ex.c ****     __HAL_DMA_CLEAR_FLAG (hdma, __HAL_DMA_GET_FE_FLAG_INDEX(hdma));
 1968              		.loc 1 199 5 discriminator 120 view .LVU510
 1969 0b52 02F58062 		add	r2, r2, #1024
 1970 0b56 9342     		cmp	r3, r2
 1971 0b58 26D0     		beq	.L240
 199:Drivers/STM32F4xx_HAL_Driver/Src/stm32f4xx_hal_dma_ex.c ****     __HAL_DMA_CLEAR_FLAG (hdma, __HAL_DMA_GET_FE_FLAG_INDEX(hdma));
 1972              		.loc 1 199 5 discriminator 122 view .LVU511
 1973 0b5a A2F56872 		sub	r2, r2, #928
 1974 0b5e 9342     		cmp	r3, r2
 1975 0b60 32D0     		beq	.L241
 199:Drivers/STM32F4xx_HAL_Driver/Src/stm32f4xx_hal_dma_ex.c ****     __HAL_DMA_CLEAR_FLAG (hdma, __HAL_DMA_GET_FE_FLAG_INDEX(hdma));
 1976              		.loc 1 199 5 discriminator 124 view .LVU512
 1977 0b62 02F58062 		add	r2, r2, #1024
 1978 0b66 9342     		cmp	r3, r2
 1979 0b68 02D0     		beq	.L321
 199:Drivers/STM32F4xx_HAL_Driver/Src/stm32f4xx_hal_dma_ex.c ****     __HAL_DMA_CLEAR_FLAG (hdma, __HAL_DMA_GET_FE_FLAG_INDEX(hdma));
 1980              		.loc 1 199 5 discriminator 127 view .LVU513
 1981 0b6a 4FF08073 		mov	r3, #16777216
 1982 0b6e 03E0     		b	.L50
 1983              	.L321:
 199:Drivers/STM32F4xx_HAL_Driver/Src/stm32f4xx_hal_dma_ex.c ****     __HAL_DMA_CLEAR_FLAG (hdma, __HAL_DMA_GET_FE_FLAG_INDEX(hdma));
 1984              		.loc 1 199 5 discriminator 126 view .LVU514
 1985 0b70 4FF48023 		mov	r3, #262144
 1986 0b74 00E0     		b	.L50
 1987              	.L231:
 199:Drivers/STM32F4xx_HAL_Driver/Src/stm32f4xx_hal_dma_ex.c ****     __HAL_DMA_CLEAR_FLAG (hdma, __HAL_DMA_GET_FE_FLAG_INDEX(hdma));
 1988              		.loc 1 199 5 discriminator 105 view .LVU515
 1989 0b76 0423     		movs	r3, #4
 1990              	.L50:
 199:Drivers/STM32F4xx_HAL_Driver/Src/stm32f4xx_hal_dma_ex.c ****     __HAL_DMA_CLEAR_FLAG (hdma, __HAL_DMA_GET_FE_FLAG_INDEX(hdma));
 1991              		.loc 1 199 5 discriminator 151 view .LVU516
 1992 0b78 0E4A     		ldr	r2, .L333+4
 1993 0b7a D360     		str	r3, [r2, #12]
 1994 0b7c 0DE7     		b	.L46
 1995              	.L232:
 199:Drivers/STM32F4xx_HAL_Driver/Src/stm32f4xx_hal_dma_ex.c ****     __HAL_DMA_CLEAR_FLAG (hdma, __HAL_DMA_GET_FE_FLAG_INDEX(hdma));
ARM GAS  /tmp/ccWA14hl.s 			page 50


 1996              		.loc 1 199 5 discriminator 107 view .LVU517
 1997 0b7e 0423     		movs	r3, #4
 1998 0b80 FAE7     		b	.L50
 1999              	.L233:
 199:Drivers/STM32F4xx_HAL_Driver/Src/stm32f4xx_hal_dma_ex.c ****     __HAL_DMA_CLEAR_FLAG (hdma, __HAL_DMA_GET_FE_FLAG_INDEX(hdma));
 2000              		.loc 1 199 5 discriminator 109 view .LVU518
 2001 0b82 0423     		movs	r3, #4
 2002 0b84 F8E7     		b	.L50
 2003              	.L234:
 199:Drivers/STM32F4xx_HAL_Driver/Src/stm32f4xx_hal_dma_ex.c ****     __HAL_DMA_CLEAR_FLAG (hdma, __HAL_DMA_GET_FE_FLAG_INDEX(hdma));
 2004              		.loc 1 199 5 discriminator 111 view .LVU519
 2005 0b86 0423     		movs	r3, #4
 2006 0b88 F6E7     		b	.L50
 2007              	.L235:
 199:Drivers/STM32F4xx_HAL_Driver/Src/stm32f4xx_hal_dma_ex.c ****     __HAL_DMA_CLEAR_FLAG (hdma, __HAL_DMA_GET_FE_FLAG_INDEX(hdma));
 2008              		.loc 1 199 5 discriminator 113 view .LVU520
 2009 0b8a 4FF48073 		mov	r3, #256
 2010 0b8e F3E7     		b	.L50
 2011              	.L236:
 199:Drivers/STM32F4xx_HAL_Driver/Src/stm32f4xx_hal_dma_ex.c ****     __HAL_DMA_CLEAR_FLAG (hdma, __HAL_DMA_GET_FE_FLAG_INDEX(hdma));
 2012              		.loc 1 199 5 discriminator 115 view .LVU521
 2013 0b90 4FF48073 		mov	r3, #256
 2014 0b94 F0E7     		b	.L50
 2015              	.L237:
 199:Drivers/STM32F4xx_HAL_Driver/Src/stm32f4xx_hal_dma_ex.c ****     __HAL_DMA_CLEAR_FLAG (hdma, __HAL_DMA_GET_FE_FLAG_INDEX(hdma));
 2016              		.loc 1 199 5 discriminator 117 view .LVU522
 2017 0b96 4FF48073 		mov	r3, #256
 2018 0b9a EDE7     		b	.L50
 2019              	.L238:
 199:Drivers/STM32F4xx_HAL_Driver/Src/stm32f4xx_hal_dma_ex.c ****     __HAL_DMA_CLEAR_FLAG (hdma, __HAL_DMA_GET_FE_FLAG_INDEX(hdma));
 2020              		.loc 1 199 5 discriminator 119 view .LVU523
 2021 0b9c 4FF48073 		mov	r3, #256
 2022 0ba0 EAE7     		b	.L50
 2023              	.L239:
 199:Drivers/STM32F4xx_HAL_Driver/Src/stm32f4xx_hal_dma_ex.c ****     __HAL_DMA_CLEAR_FLAG (hdma, __HAL_DMA_GET_FE_FLAG_INDEX(hdma));
 2024              		.loc 1 199 5 discriminator 121 view .LVU524
 2025 0ba2 4FF48023 		mov	r3, #262144
 2026 0ba6 E7E7     		b	.L50
 2027              	.L240:
 199:Drivers/STM32F4xx_HAL_Driver/Src/stm32f4xx_hal_dma_ex.c ****     __HAL_DMA_CLEAR_FLAG (hdma, __HAL_DMA_GET_FE_FLAG_INDEX(hdma));
 2028              		.loc 1 199 5 discriminator 123 view .LVU525
 2029 0ba8 4FF48023 		mov	r3, #262144
 2030 0bac E4E7     		b	.L50
 2031              	.L334:
 2032 0bae 00BF     		.align	2
 2033              	.L333:
 2034 0bb0 10600240 		.word	1073897488
 2035 0bb4 00600240 		.word	1073897472
 2036 0bb8 00640240 		.word	1073898496
 2037 0bbc 58640240 		.word	1073898584
 2038 0bc0 B8600240 		.word	1073897656
 2039 0bc4 58600240 		.word	1073897560
 2040              	.L241:
 199:Drivers/STM32F4xx_HAL_Driver/Src/stm32f4xx_hal_dma_ex.c ****     __HAL_DMA_CLEAR_FLAG (hdma, __HAL_DMA_GET_FE_FLAG_INDEX(hdma));
 2041              		.loc 1 199 5 discriminator 125 view .LVU526
 2042 0bc8 4FF48023 		mov	r3, #262144
 2043 0bcc D4E7     		b	.L50
ARM GAS  /tmp/ccWA14hl.s 			page 51


 2044              	.L49:
 199:Drivers/STM32F4xx_HAL_Driver/Src/stm32f4xx_hal_dma_ex.c ****     __HAL_DMA_CLEAR_FLAG (hdma, __HAL_DMA_GET_FE_FLAG_INDEX(hdma));
 2045              		.loc 1 199 5 discriminator 103 view .LVU527
 2046 0bce 994A     		ldr	r2, .L335
 2047 0bd0 9342     		cmp	r3, r2
 2048 0bd2 31D0     		beq	.L243
 199:Drivers/STM32F4xx_HAL_Driver/Src/stm32f4xx_hal_dma_ex.c ****     __HAL_DMA_CLEAR_FLAG (hdma, __HAL_DMA_GET_FE_FLAG_INDEX(hdma));
 2049              		.loc 1 199 5 discriminator 153 view .LVU528
 2050 0bd4 02F58062 		add	r2, r2, #1024
 2051 0bd8 9342     		cmp	r3, r2
 2052 0bda 31D0     		beq	.L244
 199:Drivers/STM32F4xx_HAL_Driver/Src/stm32f4xx_hal_dma_ex.c ****     __HAL_DMA_CLEAR_FLAG (hdma, __HAL_DMA_GET_FE_FLAG_INDEX(hdma));
 2053              		.loc 1 199 5 discriminator 155 view .LVU529
 2054 0bdc A2F56872 		sub	r2, r2, #928
 2055 0be0 9342     		cmp	r3, r2
 2056 0be2 2FD0     		beq	.L245
 199:Drivers/STM32F4xx_HAL_Driver/Src/stm32f4xx_hal_dma_ex.c ****     __HAL_DMA_CLEAR_FLAG (hdma, __HAL_DMA_GET_FE_FLAG_INDEX(hdma));
 2057              		.loc 1 199 5 discriminator 157 view .LVU530
 2058 0be4 02F58062 		add	r2, r2, #1024
 2059 0be8 9342     		cmp	r3, r2
 2060 0bea 2DD0     		beq	.L246
 199:Drivers/STM32F4xx_HAL_Driver/Src/stm32f4xx_hal_dma_ex.c ****     __HAL_DMA_CLEAR_FLAG (hdma, __HAL_DMA_GET_FE_FLAG_INDEX(hdma));
 2061              		.loc 1 199 5 discriminator 159 view .LVU531
 2062 0bec A2F58962 		sub	r2, r2, #1096
 2063 0bf0 9342     		cmp	r3, r2
 2064 0bf2 2BD0     		beq	.L247
 199:Drivers/STM32F4xx_HAL_Driver/Src/stm32f4xx_hal_dma_ex.c ****     __HAL_DMA_CLEAR_FLAG (hdma, __HAL_DMA_GET_FE_FLAG_INDEX(hdma));
 2065              		.loc 1 199 5 discriminator 161 view .LVU532
 2066 0bf4 02F58062 		add	r2, r2, #1024
 2067 0bf8 9342     		cmp	r3, r2
 2068 0bfa 2AD0     		beq	.L248
 199:Drivers/STM32F4xx_HAL_Driver/Src/stm32f4xx_hal_dma_ex.c ****     __HAL_DMA_CLEAR_FLAG (hdma, __HAL_DMA_GET_FE_FLAG_INDEX(hdma));
 2069              		.loc 1 199 5 discriminator 163 view .LVU533
 2070 0bfc A2F56872 		sub	r2, r2, #928
 2071 0c00 9342     		cmp	r3, r2
 2072 0c02 29D0     		beq	.L249
 199:Drivers/STM32F4xx_HAL_Driver/Src/stm32f4xx_hal_dma_ex.c ****     __HAL_DMA_CLEAR_FLAG (hdma, __HAL_DMA_GET_FE_FLAG_INDEX(hdma));
 2073              		.loc 1 199 5 discriminator 165 view .LVU534
 2074 0c04 02F58062 		add	r2, r2, #1024
 2075 0c08 9342     		cmp	r3, r2
 2076 0c0a 28D0     		beq	.L250
 199:Drivers/STM32F4xx_HAL_Driver/Src/stm32f4xx_hal_dma_ex.c ****     __HAL_DMA_CLEAR_FLAG (hdma, __HAL_DMA_GET_FE_FLAG_INDEX(hdma));
 2077              		.loc 1 199 5 discriminator 167 view .LVU535
 2078 0c0c A2F58962 		sub	r2, r2, #1096
 2079 0c10 9342     		cmp	r3, r2
 2080 0c12 27D0     		beq	.L251
 199:Drivers/STM32F4xx_HAL_Driver/Src/stm32f4xx_hal_dma_ex.c ****     __HAL_DMA_CLEAR_FLAG (hdma, __HAL_DMA_GET_FE_FLAG_INDEX(hdma));
 2081              		.loc 1 199 5 discriminator 169 view .LVU536
 2082 0c14 02F58062 		add	r2, r2, #1024
 2083 0c18 9342     		cmp	r3, r2
 2084 0c1a 26D0     		beq	.L252
 199:Drivers/STM32F4xx_HAL_Driver/Src/stm32f4xx_hal_dma_ex.c ****     __HAL_DMA_CLEAR_FLAG (hdma, __HAL_DMA_GET_FE_FLAG_INDEX(hdma));
 2085              		.loc 1 199 5 discriminator 171 view .LVU537
 2086 0c1c A2F56872 		sub	r2, r2, #928
 2087 0c20 9342     		cmp	r3, r2
 2088 0c22 25D0     		beq	.L253
 199:Drivers/STM32F4xx_HAL_Driver/Src/stm32f4xx_hal_dma_ex.c ****     __HAL_DMA_CLEAR_FLAG (hdma, __HAL_DMA_GET_FE_FLAG_INDEX(hdma));
ARM GAS  /tmp/ccWA14hl.s 			page 52


 2089              		.loc 1 199 5 discriminator 173 view .LVU538
 2090 0c24 02F58062 		add	r2, r2, #1024
 2091 0c28 9342     		cmp	r3, r2
 2092 0c2a 02D0     		beq	.L322
 199:Drivers/STM32F4xx_HAL_Driver/Src/stm32f4xx_hal_dma_ex.c ****     __HAL_DMA_CLEAR_FLAG (hdma, __HAL_DMA_GET_FE_FLAG_INDEX(hdma));
 2093              		.loc 1 199 5 discriminator 176 view .LVU539
 2094 0c2c 4FF08073 		mov	r3, #16777216
 2095 0c30 03E0     		b	.L51
 2096              	.L322:
 199:Drivers/STM32F4xx_HAL_Driver/Src/stm32f4xx_hal_dma_ex.c ****     __HAL_DMA_CLEAR_FLAG (hdma, __HAL_DMA_GET_FE_FLAG_INDEX(hdma));
 2097              		.loc 1 199 5 discriminator 175 view .LVU540
 2098 0c32 4FF48023 		mov	r3, #262144
 2099 0c36 00E0     		b	.L51
 2100              	.L243:
 199:Drivers/STM32F4xx_HAL_Driver/Src/stm32f4xx_hal_dma_ex.c ****     __HAL_DMA_CLEAR_FLAG (hdma, __HAL_DMA_GET_FE_FLAG_INDEX(hdma));
 2101              		.loc 1 199 5 discriminator 154 view .LVU541
 2102 0c38 0423     		movs	r3, #4
 2103              	.L51:
 199:Drivers/STM32F4xx_HAL_Driver/Src/stm32f4xx_hal_dma_ex.c ****     __HAL_DMA_CLEAR_FLAG (hdma, __HAL_DMA_GET_FE_FLAG_INDEX(hdma));
 2104              		.loc 1 199 5 discriminator 200 view .LVU542
 2105 0c3a 7F4A     		ldr	r2, .L335+4
 2106 0c3c 9360     		str	r3, [r2, #8]
 2107 0c3e ACE6     		b	.L46
 2108              	.L244:
 199:Drivers/STM32F4xx_HAL_Driver/Src/stm32f4xx_hal_dma_ex.c ****     __HAL_DMA_CLEAR_FLAG (hdma, __HAL_DMA_GET_FE_FLAG_INDEX(hdma));
 2109              		.loc 1 199 5 discriminator 156 view .LVU543
 2110 0c40 0423     		movs	r3, #4
 2111 0c42 FAE7     		b	.L51
 2112              	.L245:
 199:Drivers/STM32F4xx_HAL_Driver/Src/stm32f4xx_hal_dma_ex.c ****     __HAL_DMA_CLEAR_FLAG (hdma, __HAL_DMA_GET_FE_FLAG_INDEX(hdma));
 2113              		.loc 1 199 5 discriminator 158 view .LVU544
 2114 0c44 0423     		movs	r3, #4
 2115 0c46 F8E7     		b	.L51
 2116              	.L246:
 199:Drivers/STM32F4xx_HAL_Driver/Src/stm32f4xx_hal_dma_ex.c ****     __HAL_DMA_CLEAR_FLAG (hdma, __HAL_DMA_GET_FE_FLAG_INDEX(hdma));
 2117              		.loc 1 199 5 discriminator 160 view .LVU545
 2118 0c48 0423     		movs	r3, #4
 2119 0c4a F6E7     		b	.L51
 2120              	.L247:
 199:Drivers/STM32F4xx_HAL_Driver/Src/stm32f4xx_hal_dma_ex.c ****     __HAL_DMA_CLEAR_FLAG (hdma, __HAL_DMA_GET_FE_FLAG_INDEX(hdma));
 2121              		.loc 1 199 5 discriminator 162 view .LVU546
 2122 0c4c 4FF48073 		mov	r3, #256
 2123 0c50 F3E7     		b	.L51
 2124              	.L248:
 199:Drivers/STM32F4xx_HAL_Driver/Src/stm32f4xx_hal_dma_ex.c ****     __HAL_DMA_CLEAR_FLAG (hdma, __HAL_DMA_GET_FE_FLAG_INDEX(hdma));
 2125              		.loc 1 199 5 discriminator 164 view .LVU547
 2126 0c52 4FF48073 		mov	r3, #256
 2127 0c56 F0E7     		b	.L51
 2128              	.L249:
 199:Drivers/STM32F4xx_HAL_Driver/Src/stm32f4xx_hal_dma_ex.c ****     __HAL_DMA_CLEAR_FLAG (hdma, __HAL_DMA_GET_FE_FLAG_INDEX(hdma));
 2129              		.loc 1 199 5 discriminator 166 view .LVU548
 2130 0c58 4FF48073 		mov	r3, #256
 2131 0c5c EDE7     		b	.L51
 2132              	.L250:
 199:Drivers/STM32F4xx_HAL_Driver/Src/stm32f4xx_hal_dma_ex.c ****     __HAL_DMA_CLEAR_FLAG (hdma, __HAL_DMA_GET_FE_FLAG_INDEX(hdma));
 2133              		.loc 1 199 5 discriminator 168 view .LVU549
 2134 0c5e 4FF48073 		mov	r3, #256
ARM GAS  /tmp/ccWA14hl.s 			page 53


 2135 0c62 EAE7     		b	.L51
 2136              	.L251:
 199:Drivers/STM32F4xx_HAL_Driver/Src/stm32f4xx_hal_dma_ex.c ****     __HAL_DMA_CLEAR_FLAG (hdma, __HAL_DMA_GET_FE_FLAG_INDEX(hdma));
 2137              		.loc 1 199 5 discriminator 170 view .LVU550
 2138 0c64 4FF48023 		mov	r3, #262144
 2139 0c68 E7E7     		b	.L51
 2140              	.L252:
 199:Drivers/STM32F4xx_HAL_Driver/Src/stm32f4xx_hal_dma_ex.c ****     __HAL_DMA_CLEAR_FLAG (hdma, __HAL_DMA_GET_FE_FLAG_INDEX(hdma));
 2141              		.loc 1 199 5 discriminator 172 view .LVU551
 2142 0c6a 4FF48023 		mov	r3, #262144
 2143 0c6e E4E7     		b	.L51
 2144              	.L253:
 199:Drivers/STM32F4xx_HAL_Driver/Src/stm32f4xx_hal_dma_ex.c ****     __HAL_DMA_CLEAR_FLAG (hdma, __HAL_DMA_GET_FE_FLAG_INDEX(hdma));
 2145              		.loc 1 199 5 discriminator 174 view .LVU552
 2146 0c70 4FF48023 		mov	r3, #262144
 2147 0c74 E1E7     		b	.L51
 2148              	.L319:
 200:Drivers/STM32F4xx_HAL_Driver/Src/stm32f4xx_hal_dma_ex.c **** 
 2149              		.loc 1 200 5 discriminator 25 view .LVU553
 2150 0c76 4FF48032 		mov	r2, #65536
 2151 0c7a 00E0     		b	.L53
 2152              	.L255:
 200:Drivers/STM32F4xx_HAL_Driver/Src/stm32f4xx_hal_dma_ex.c **** 
 2153              		.loc 1 200 5 discriminator 4 view .LVU554
 2154 0c7c 0122     		movs	r2, #1
 2155              	.L53:
 200:Drivers/STM32F4xx_HAL_Driver/Src/stm32f4xx_hal_dma_ex.c **** 
 2156              		.loc 1 200 5 discriminator 50 view .LVU555
 2157 0c7e 6F4B     		ldr	r3, .L335+8
 2158 0c80 DA60     		str	r2, [r3, #12]
 2159              	.L54:
 203:Drivers/STM32F4xx_HAL_Driver/Src/stm32f4xx_hal_dma_ex.c ****     hdma->Instance->FCR |= DMA_IT_FE;
 2160              		.loc 1 203 5 is_stmt 1 view .LVU556
 203:Drivers/STM32F4xx_HAL_Driver/Src/stm32f4xx_hal_dma_ex.c ****     hdma->Instance->FCR |= DMA_IT_FE;
 2161              		.loc 1 203 9 is_stmt 0 view .LVU557
 2162 0c82 2268     		ldr	r2, [r4]
 203:Drivers/STM32F4xx_HAL_Driver/Src/stm32f4xx_hal_dma_ex.c ****     hdma->Instance->FCR |= DMA_IT_FE;
 2163              		.loc 1 203 19 view .LVU558
 2164 0c84 1368     		ldr	r3, [r2]
 203:Drivers/STM32F4xx_HAL_Driver/Src/stm32f4xx_hal_dma_ex.c ****     hdma->Instance->FCR |= DMA_IT_FE;
 2165              		.loc 1 203 25 view .LVU559
 2166 0c86 43F01603 		orr	r3, r3, #22
 2167 0c8a 1360     		str	r3, [r2]
 204:Drivers/STM32F4xx_HAL_Driver/Src/stm32f4xx_hal_dma_ex.c ****     
 2168              		.loc 1 204 5 is_stmt 1 view .LVU560
 204:Drivers/STM32F4xx_HAL_Driver/Src/stm32f4xx_hal_dma_ex.c ****     
 2169              		.loc 1 204 9 is_stmt 0 view .LVU561
 2170 0c8c 2268     		ldr	r2, [r4]
 204:Drivers/STM32F4xx_HAL_Driver/Src/stm32f4xx_hal_dma_ex.c ****     
 2171              		.loc 1 204 19 view .LVU562
 2172 0c8e 5369     		ldr	r3, [r2, #20]
 204:Drivers/STM32F4xx_HAL_Driver/Src/stm32f4xx_hal_dma_ex.c ****     
 2173              		.loc 1 204 25 view .LVU563
 2174 0c90 43F08003 		orr	r3, r3, #128
 2175 0c94 5361     		str	r3, [r2, #20]
 206:Drivers/STM32F4xx_HAL_Driver/Src/stm32f4xx_hal_dma_ex.c ****     {
 2176              		.loc 1 206 5 is_stmt 1 view .LVU564
ARM GAS  /tmp/ccWA14hl.s 			page 54


 206:Drivers/STM32F4xx_HAL_Driver/Src/stm32f4xx_hal_dma_ex.c ****     {
 2177              		.loc 1 206 13 is_stmt 0 view .LVU565
 2178 0c96 236C     		ldr	r3, [r4, #64]
 206:Drivers/STM32F4xx_HAL_Driver/Src/stm32f4xx_hal_dma_ex.c ****     {
 2179              		.loc 1 206 7 view .LVU566
 2180 0c98 002B     		cmp	r3, #0
 2181 0c9a 00F02581 		beq	.L323
 2182              	.L60:
 208:Drivers/STM32F4xx_HAL_Driver/Src/stm32f4xx_hal_dma_ex.c ****     }
 2183              		.loc 1 208 7 is_stmt 1 view .LVU567
 208:Drivers/STM32F4xx_HAL_Driver/Src/stm32f4xx_hal_dma_ex.c ****     }
 2184              		.loc 1 208 11 is_stmt 0 view .LVU568
 2185 0c9e 2268     		ldr	r2, [r4]
 208:Drivers/STM32F4xx_HAL_Driver/Src/stm32f4xx_hal_dma_ex.c ****     }
 2186              		.loc 1 208 21 view .LVU569
 2187 0ca0 1368     		ldr	r3, [r2]
 208:Drivers/STM32F4xx_HAL_Driver/Src/stm32f4xx_hal_dma_ex.c ****     }
 2188              		.loc 1 208 27 view .LVU570
 2189 0ca2 43F00803 		orr	r3, r3, #8
 2190 0ca6 1360     		str	r3, [r2]
 2191              	.L61:
 212:Drivers/STM32F4xx_HAL_Driver/Src/stm32f4xx_hal_dma_ex.c ****   }
 2192              		.loc 1 212 5 is_stmt 1 view .LVU571
 2193 0ca8 2268     		ldr	r2, [r4]
 2194 0caa 1368     		ldr	r3, [r2]
 2195 0cac 43F00103 		orr	r3, r3, #1
 2196 0cb0 1360     		str	r3, [r2]
 156:Drivers/STM32F4xx_HAL_Driver/Src/stm32f4xx_hal_dma_ex.c ****   
 2197              		.loc 1 156 21 is_stmt 0 view .LVU572
 2198 0cb2 0020     		movs	r0, #0
 2199 0cb4 FFF7C9B9 		b	.L16
 2200              	.L256:
 200:Drivers/STM32F4xx_HAL_Driver/Src/stm32f4xx_hal_dma_ex.c **** 
 2201              		.loc 1 200 5 discriminator 6 view .LVU573
 2202 0cb8 0122     		movs	r2, #1
 2203 0cba E0E7     		b	.L53
 2204              	.L257:
 200:Drivers/STM32F4xx_HAL_Driver/Src/stm32f4xx_hal_dma_ex.c **** 
 2205              		.loc 1 200 5 discriminator 8 view .LVU574
 2206 0cbc 0122     		movs	r2, #1
 2207 0cbe DEE7     		b	.L53
 2208              	.L258:
 200:Drivers/STM32F4xx_HAL_Driver/Src/stm32f4xx_hal_dma_ex.c **** 
 2209              		.loc 1 200 5 discriminator 10 view .LVU575
 2210 0cc0 0122     		movs	r2, #1
 2211 0cc2 DCE7     		b	.L53
 2212              	.L259:
 200:Drivers/STM32F4xx_HAL_Driver/Src/stm32f4xx_hal_dma_ex.c **** 
 2213              		.loc 1 200 5 discriminator 12 view .LVU576
 2214 0cc4 4022     		movs	r2, #64
 2215 0cc6 DAE7     		b	.L53
 2216              	.L260:
 200:Drivers/STM32F4xx_HAL_Driver/Src/stm32f4xx_hal_dma_ex.c **** 
 2217              		.loc 1 200 5 discriminator 14 view .LVU577
 2218 0cc8 4022     		movs	r2, #64
 2219 0cca D8E7     		b	.L53
 2220              	.L261:
ARM GAS  /tmp/ccWA14hl.s 			page 55


 200:Drivers/STM32F4xx_HAL_Driver/Src/stm32f4xx_hal_dma_ex.c **** 
 2221              		.loc 1 200 5 discriminator 16 view .LVU578
 2222 0ccc 4022     		movs	r2, #64
 2223 0cce D6E7     		b	.L53
 2224              	.L262:
 200:Drivers/STM32F4xx_HAL_Driver/Src/stm32f4xx_hal_dma_ex.c **** 
 2225              		.loc 1 200 5 discriminator 18 view .LVU579
 2226 0cd0 4022     		movs	r2, #64
 2227 0cd2 D4E7     		b	.L53
 2228              	.L263:
 200:Drivers/STM32F4xx_HAL_Driver/Src/stm32f4xx_hal_dma_ex.c **** 
 2229              		.loc 1 200 5 discriminator 20 view .LVU580
 2230 0cd4 4FF48032 		mov	r2, #65536
 2231 0cd8 D1E7     		b	.L53
 2232              	.L264:
 200:Drivers/STM32F4xx_HAL_Driver/Src/stm32f4xx_hal_dma_ex.c **** 
 2233              		.loc 1 200 5 discriminator 22 view .LVU581
 2234 0cda 4FF48032 		mov	r2, #65536
 2235 0cde CEE7     		b	.L53
 2236              	.L265:
 200:Drivers/STM32F4xx_HAL_Driver/Src/stm32f4xx_hal_dma_ex.c **** 
 2237              		.loc 1 200 5 discriminator 24 view .LVU582
 2238 0ce0 4FF48032 		mov	r2, #65536
 2239 0ce4 CBE7     		b	.L53
 2240              	.L52:
 200:Drivers/STM32F4xx_HAL_Driver/Src/stm32f4xx_hal_dma_ex.c **** 
 2241              		.loc 1 200 5 discriminator 2 view .LVU583
 2242 0ce6 564A     		ldr	r2, .L335+12
 2243 0ce8 9342     		cmp	r3, r2
 2244 0cea 4FD9     		bls	.L55
 200:Drivers/STM32F4xx_HAL_Driver/Src/stm32f4xx_hal_dma_ex.c **** 
 2245              		.loc 1 200 5 discriminator 51 view .LVU584
 2246 0cec A83A     		subs	r2, r2, #168
 2247 0cee 9342     		cmp	r3, r2
 2248 0cf0 31D0     		beq	.L267
 200:Drivers/STM32F4xx_HAL_Driver/Src/stm32f4xx_hal_dma_ex.c **** 
 2249              		.loc 1 200 5 discriminator 53 view .LVU585
 2250 0cf2 02F58062 		add	r2, r2, #1024
 2251 0cf6 9342     		cmp	r3, r2
 2252 0cf8 31D0     		beq	.L268
 200:Drivers/STM32F4xx_HAL_Driver/Src/stm32f4xx_hal_dma_ex.c **** 
 2253              		.loc 1 200 5 discriminator 55 view .LVU586
 2254 0cfa A2F56872 		sub	r2, r2, #928
 2255 0cfe 9342     		cmp	r3, r2
 2256 0d00 2FD0     		beq	.L269
 200:Drivers/STM32F4xx_HAL_Driver/Src/stm32f4xx_hal_dma_ex.c **** 
 2257              		.loc 1 200 5 discriminator 57 view .LVU587
 2258 0d02 02F58062 		add	r2, r2, #1024
 2259 0d06 9342     		cmp	r3, r2
 2260 0d08 2DD0     		beq	.L270
 200:Drivers/STM32F4xx_HAL_Driver/Src/stm32f4xx_hal_dma_ex.c **** 
 2261              		.loc 1 200 5 discriminator 59 view .LVU588
 2262 0d0a A2F58962 		sub	r2, r2, #1096
 2263 0d0e 9342     		cmp	r3, r2
 2264 0d10 2BD0     		beq	.L271
 200:Drivers/STM32F4xx_HAL_Driver/Src/stm32f4xx_hal_dma_ex.c **** 
 2265              		.loc 1 200 5 discriminator 61 view .LVU589
ARM GAS  /tmp/ccWA14hl.s 			page 56


 2266 0d12 02F58062 		add	r2, r2, #1024
 2267 0d16 9342     		cmp	r3, r2
 2268 0d18 29D0     		beq	.L272
 200:Drivers/STM32F4xx_HAL_Driver/Src/stm32f4xx_hal_dma_ex.c **** 
 2269              		.loc 1 200 5 discriminator 63 view .LVU590
 2270 0d1a A2F56872 		sub	r2, r2, #928
 2271 0d1e 9342     		cmp	r3, r2
 2272 0d20 27D0     		beq	.L273
 200:Drivers/STM32F4xx_HAL_Driver/Src/stm32f4xx_hal_dma_ex.c **** 
 2273              		.loc 1 200 5 discriminator 65 view .LVU591
 2274 0d22 02F58062 		add	r2, r2, #1024
 2275 0d26 9342     		cmp	r3, r2
 2276 0d28 25D0     		beq	.L274
 200:Drivers/STM32F4xx_HAL_Driver/Src/stm32f4xx_hal_dma_ex.c **** 
 2277              		.loc 1 200 5 discriminator 67 view .LVU592
 2278 0d2a A2F58962 		sub	r2, r2, #1096
 2279 0d2e 9342     		cmp	r3, r2
 2280 0d30 23D0     		beq	.L275
 200:Drivers/STM32F4xx_HAL_Driver/Src/stm32f4xx_hal_dma_ex.c **** 
 2281              		.loc 1 200 5 discriminator 69 view .LVU593
 2282 0d32 02F58062 		add	r2, r2, #1024
 2283 0d36 9342     		cmp	r3, r2
 2284 0d38 22D0     		beq	.L276
 200:Drivers/STM32F4xx_HAL_Driver/Src/stm32f4xx_hal_dma_ex.c **** 
 2285              		.loc 1 200 5 discriminator 71 view .LVU594
 2286 0d3a A2F56872 		sub	r2, r2, #928
 2287 0d3e 9342     		cmp	r3, r2
 2288 0d40 21D0     		beq	.L277
 200:Drivers/STM32F4xx_HAL_Driver/Src/stm32f4xx_hal_dma_ex.c **** 
 2289              		.loc 1 200 5 discriminator 73 view .LVU595
 2290 0d42 02F58062 		add	r2, r2, #1024
 2291 0d46 9342     		cmp	r3, r2
 2292 0d48 02D0     		beq	.L324
 200:Drivers/STM32F4xx_HAL_Driver/Src/stm32f4xx_hal_dma_ex.c **** 
 2293              		.loc 1 200 5 discriminator 76 view .LVU596
 2294 0d4a 4FF48003 		mov	r3, #4194304
 2295 0d4e 03E0     		b	.L56
 2296              	.L324:
 200:Drivers/STM32F4xx_HAL_Driver/Src/stm32f4xx_hal_dma_ex.c **** 
 2297              		.loc 1 200 5 discriminator 75 view .LVU597
 2298 0d50 4FF48033 		mov	r3, #65536
 2299 0d54 00E0     		b	.L56
 2300              	.L267:
 200:Drivers/STM32F4xx_HAL_Driver/Src/stm32f4xx_hal_dma_ex.c **** 
 2301              		.loc 1 200 5 discriminator 54 view .LVU598
 2302 0d56 0123     		movs	r3, #1
 2303              	.L56:
 200:Drivers/STM32F4xx_HAL_Driver/Src/stm32f4xx_hal_dma_ex.c **** 
 2304              		.loc 1 200 5 discriminator 100 view .LVU599
 2305 0d58 384A     		ldr	r2, .L335+8
 2306 0d5a 9360     		str	r3, [r2, #8]
 2307 0d5c 91E7     		b	.L54
 2308              	.L268:
 200:Drivers/STM32F4xx_HAL_Driver/Src/stm32f4xx_hal_dma_ex.c **** 
 2309              		.loc 1 200 5 discriminator 56 view .LVU600
 2310 0d5e 0123     		movs	r3, #1
 2311 0d60 FAE7     		b	.L56
ARM GAS  /tmp/ccWA14hl.s 			page 57


 2312              	.L269:
 200:Drivers/STM32F4xx_HAL_Driver/Src/stm32f4xx_hal_dma_ex.c **** 
 2313              		.loc 1 200 5 discriminator 58 view .LVU601
 2314 0d62 0123     		movs	r3, #1
 2315 0d64 F8E7     		b	.L56
 2316              	.L270:
 200:Drivers/STM32F4xx_HAL_Driver/Src/stm32f4xx_hal_dma_ex.c **** 
 2317              		.loc 1 200 5 discriminator 60 view .LVU602
 2318 0d66 0123     		movs	r3, #1
 2319 0d68 F6E7     		b	.L56
 2320              	.L271:
 200:Drivers/STM32F4xx_HAL_Driver/Src/stm32f4xx_hal_dma_ex.c **** 
 2321              		.loc 1 200 5 discriminator 62 view .LVU603
 2322 0d6a 4023     		movs	r3, #64
 2323 0d6c F4E7     		b	.L56
 2324              	.L272:
 200:Drivers/STM32F4xx_HAL_Driver/Src/stm32f4xx_hal_dma_ex.c **** 
 2325              		.loc 1 200 5 discriminator 64 view .LVU604
 2326 0d6e 4023     		movs	r3, #64
 2327 0d70 F2E7     		b	.L56
 2328              	.L273:
 200:Drivers/STM32F4xx_HAL_Driver/Src/stm32f4xx_hal_dma_ex.c **** 
 2329              		.loc 1 200 5 discriminator 66 view .LVU605
 2330 0d72 4023     		movs	r3, #64
 2331 0d74 F0E7     		b	.L56
 2332              	.L274:
 200:Drivers/STM32F4xx_HAL_Driver/Src/stm32f4xx_hal_dma_ex.c **** 
 2333              		.loc 1 200 5 discriminator 68 view .LVU606
 2334 0d76 4023     		movs	r3, #64
 2335 0d78 EEE7     		b	.L56
 2336              	.L275:
 200:Drivers/STM32F4xx_HAL_Driver/Src/stm32f4xx_hal_dma_ex.c **** 
 2337              		.loc 1 200 5 discriminator 70 view .LVU607
 2338 0d7a 4FF48033 		mov	r3, #65536
 2339 0d7e EBE7     		b	.L56
 2340              	.L276:
 200:Drivers/STM32F4xx_HAL_Driver/Src/stm32f4xx_hal_dma_ex.c **** 
 2341              		.loc 1 200 5 discriminator 72 view .LVU608
 2342 0d80 4FF48033 		mov	r3, #65536
 2343 0d84 E8E7     		b	.L56
 2344              	.L277:
 200:Drivers/STM32F4xx_HAL_Driver/Src/stm32f4xx_hal_dma_ex.c **** 
 2345              		.loc 1 200 5 discriminator 74 view .LVU609
 2346 0d86 4FF48033 		mov	r3, #65536
 2347 0d8a E5E7     		b	.L56
 2348              	.L55:
 200:Drivers/STM32F4xx_HAL_Driver/Src/stm32f4xx_hal_dma_ex.c **** 
 2349              		.loc 1 200 5 discriminator 52 view .LVU610
 2350 0d8c 2D4A     		ldr	r2, .L335+16
 2351 0d8e 9342     		cmp	r3, r2
 2352 0d90 5AD9     		bls	.L57
 200:Drivers/STM32F4xx_HAL_Driver/Src/stm32f4xx_hal_dma_ex.c **** 
 2353              		.loc 1 200 5 discriminator 102 view .LVU611
 2354 0d92 483A     		subs	r2, r2, #72
 2355 0d94 9342     		cmp	r3, r2
 2356 0d96 31D0     		beq	.L279
 200:Drivers/STM32F4xx_HAL_Driver/Src/stm32f4xx_hal_dma_ex.c **** 
ARM GAS  /tmp/ccWA14hl.s 			page 58


 2357              		.loc 1 200 5 discriminator 104 view .LVU612
 2358 0d98 02F58062 		add	r2, r2, #1024
 2359 0d9c 9342     		cmp	r3, r2
 2360 0d9e 31D0     		beq	.L280
 200:Drivers/STM32F4xx_HAL_Driver/Src/stm32f4xx_hal_dma_ex.c **** 
 2361              		.loc 1 200 5 discriminator 106 view .LVU613
 2362 0da0 A2F56872 		sub	r2, r2, #928
 2363 0da4 9342     		cmp	r3, r2
 2364 0da6 2FD0     		beq	.L281
 200:Drivers/STM32F4xx_HAL_Driver/Src/stm32f4xx_hal_dma_ex.c **** 
 2365              		.loc 1 200 5 discriminator 108 view .LVU614
 2366 0da8 02F58062 		add	r2, r2, #1024
 2367 0dac 9342     		cmp	r3, r2
 2368 0dae 2DD0     		beq	.L282
 200:Drivers/STM32F4xx_HAL_Driver/Src/stm32f4xx_hal_dma_ex.c **** 
 2369              		.loc 1 200 5 discriminator 110 view .LVU615
 2370 0db0 A2F58962 		sub	r2, r2, #1096
 2371 0db4 9342     		cmp	r3, r2
 2372 0db6 2BD0     		beq	.L283
 200:Drivers/STM32F4xx_HAL_Driver/Src/stm32f4xx_hal_dma_ex.c **** 
 2373              		.loc 1 200 5 discriminator 112 view .LVU616
 2374 0db8 02F58062 		add	r2, r2, #1024
 2375 0dbc 9342     		cmp	r3, r2
 2376 0dbe 29D0     		beq	.L284
 200:Drivers/STM32F4xx_HAL_Driver/Src/stm32f4xx_hal_dma_ex.c **** 
 2377              		.loc 1 200 5 discriminator 114 view .LVU617
 2378 0dc0 A2F56872 		sub	r2, r2, #928
 2379 0dc4 9342     		cmp	r3, r2
 2380 0dc6 27D0     		beq	.L285
 200:Drivers/STM32F4xx_HAL_Driver/Src/stm32f4xx_hal_dma_ex.c **** 
 2381              		.loc 1 200 5 discriminator 116 view .LVU618
 2382 0dc8 02F58062 		add	r2, r2, #1024
 2383 0dcc 9342     		cmp	r3, r2
 2384 0dce 25D0     		beq	.L286
 200:Drivers/STM32F4xx_HAL_Driver/Src/stm32f4xx_hal_dma_ex.c **** 
 2385              		.loc 1 200 5 discriminator 118 view .LVU619
 2386 0dd0 A2F58962 		sub	r2, r2, #1096
 2387 0dd4 9342     		cmp	r3, r2
 2388 0dd6 23D0     		beq	.L287
 200:Drivers/STM32F4xx_HAL_Driver/Src/stm32f4xx_hal_dma_ex.c **** 
 2389              		.loc 1 200 5 discriminator 120 view .LVU620
 2390 0dd8 02F58062 		add	r2, r2, #1024
 2391 0ddc 9342     		cmp	r3, r2
 2392 0dde 22D0     		beq	.L288
 200:Drivers/STM32F4xx_HAL_Driver/Src/stm32f4xx_hal_dma_ex.c **** 
 2393              		.loc 1 200 5 discriminator 122 view .LVU621
 2394 0de0 A2F56872 		sub	r2, r2, #928
 2395 0de4 9342     		cmp	r3, r2
 2396 0de6 21D0     		beq	.L289
 200:Drivers/STM32F4xx_HAL_Driver/Src/stm32f4xx_hal_dma_ex.c **** 
 2397              		.loc 1 200 5 discriminator 124 view .LVU622
 2398 0de8 02F58062 		add	r2, r2, #1024
 2399 0dec 9342     		cmp	r3, r2
 2400 0dee 02D0     		beq	.L325
 200:Drivers/STM32F4xx_HAL_Driver/Src/stm32f4xx_hal_dma_ex.c **** 
 2401              		.loc 1 200 5 discriminator 127 view .LVU623
 2402 0df0 4FF48003 		mov	r3, #4194304
ARM GAS  /tmp/ccWA14hl.s 			page 59


 2403 0df4 03E0     		b	.L58
 2404              	.L325:
 200:Drivers/STM32F4xx_HAL_Driver/Src/stm32f4xx_hal_dma_ex.c **** 
 2405              		.loc 1 200 5 discriminator 126 view .LVU624
 2406 0df6 4FF48033 		mov	r3, #65536
 2407 0dfa 00E0     		b	.L58
 2408              	.L279:
 200:Drivers/STM32F4xx_HAL_Driver/Src/stm32f4xx_hal_dma_ex.c **** 
 2409              		.loc 1 200 5 discriminator 105 view .LVU625
 2410 0dfc 0123     		movs	r3, #1
 2411              	.L58:
 200:Drivers/STM32F4xx_HAL_Driver/Src/stm32f4xx_hal_dma_ex.c **** 
 2412              		.loc 1 200 5 discriminator 151 view .LVU626
 2413 0dfe 0E4A     		ldr	r2, .L335+4
 2414 0e00 D360     		str	r3, [r2, #12]
 2415 0e02 3EE7     		b	.L54
 2416              	.L280:
 200:Drivers/STM32F4xx_HAL_Driver/Src/stm32f4xx_hal_dma_ex.c **** 
 2417              		.loc 1 200 5 discriminator 107 view .LVU627
 2418 0e04 0123     		movs	r3, #1
 2419 0e06 FAE7     		b	.L58
 2420              	.L281:
 200:Drivers/STM32F4xx_HAL_Driver/Src/stm32f4xx_hal_dma_ex.c **** 
 2421              		.loc 1 200 5 discriminator 109 view .LVU628
 2422 0e08 0123     		movs	r3, #1
 2423 0e0a F8E7     		b	.L58
 2424              	.L282:
 200:Drivers/STM32F4xx_HAL_Driver/Src/stm32f4xx_hal_dma_ex.c **** 
 2425              		.loc 1 200 5 discriminator 111 view .LVU629
 2426 0e0c 0123     		movs	r3, #1
 2427 0e0e F6E7     		b	.L58
 2428              	.L283:
 200:Drivers/STM32F4xx_HAL_Driver/Src/stm32f4xx_hal_dma_ex.c **** 
 2429              		.loc 1 200 5 discriminator 113 view .LVU630
 2430 0e10 4023     		movs	r3, #64
 2431 0e12 F4E7     		b	.L58
 2432              	.L284:
 200:Drivers/STM32F4xx_HAL_Driver/Src/stm32f4xx_hal_dma_ex.c **** 
 2433              		.loc 1 200 5 discriminator 115 view .LVU631
 2434 0e14 4023     		movs	r3, #64
 2435 0e16 F2E7     		b	.L58
 2436              	.L285:
 200:Drivers/STM32F4xx_HAL_Driver/Src/stm32f4xx_hal_dma_ex.c **** 
 2437              		.loc 1 200 5 discriminator 117 view .LVU632
 2438 0e18 4023     		movs	r3, #64
 2439 0e1a F0E7     		b	.L58
 2440              	.L286:
 200:Drivers/STM32F4xx_HAL_Driver/Src/stm32f4xx_hal_dma_ex.c **** 
 2441              		.loc 1 200 5 discriminator 119 view .LVU633
 2442 0e1c 4023     		movs	r3, #64
 2443 0e1e EEE7     		b	.L58
 2444              	.L287:
 200:Drivers/STM32F4xx_HAL_Driver/Src/stm32f4xx_hal_dma_ex.c **** 
 2445              		.loc 1 200 5 discriminator 121 view .LVU634
 2446 0e20 4FF48033 		mov	r3, #65536
 2447 0e24 EBE7     		b	.L58
 2448              	.L288:
ARM GAS  /tmp/ccWA14hl.s 			page 60


 200:Drivers/STM32F4xx_HAL_Driver/Src/stm32f4xx_hal_dma_ex.c **** 
 2449              		.loc 1 200 5 discriminator 123 view .LVU635
 2450 0e26 4FF48033 		mov	r3, #65536
 2451 0e2a E8E7     		b	.L58
 2452              	.L289:
 200:Drivers/STM32F4xx_HAL_Driver/Src/stm32f4xx_hal_dma_ex.c **** 
 2453              		.loc 1 200 5 discriminator 125 view .LVU636
 2454 0e2c 4FF48033 		mov	r3, #65536
 2455 0e30 E5E7     		b	.L58
 2456              	.L336:
 2457 0e32 00BF     		.align	2
 2458              	.L335:
 2459 0e34 10600240 		.word	1073897488
 2460 0e38 00600240 		.word	1073897472
 2461 0e3c 00640240 		.word	1073898496
 2462 0e40 B8600240 		.word	1073897656
 2463 0e44 58600240 		.word	1073897560
 2464              	.L57:
 200:Drivers/STM32F4xx_HAL_Driver/Src/stm32f4xx_hal_dma_ex.c **** 
 2465              		.loc 1 200 5 discriminator 103 view .LVU637
 2466 0e48 2B4A     		ldr	r2, .L337
 2467 0e4a 9342     		cmp	r3, r2
 2468 0e4c 31D0     		beq	.L291
 200:Drivers/STM32F4xx_HAL_Driver/Src/stm32f4xx_hal_dma_ex.c **** 
 2469              		.loc 1 200 5 discriminator 153 view .LVU638
 2470 0e4e 02F58062 		add	r2, r2, #1024
 2471 0e52 9342     		cmp	r3, r2
 2472 0e54 31D0     		beq	.L292
 200:Drivers/STM32F4xx_HAL_Driver/Src/stm32f4xx_hal_dma_ex.c **** 
 2473              		.loc 1 200 5 discriminator 155 view .LVU639
 2474 0e56 A2F56872 		sub	r2, r2, #928
 2475 0e5a 9342     		cmp	r3, r2
 2476 0e5c 2FD0     		beq	.L293
 200:Drivers/STM32F4xx_HAL_Driver/Src/stm32f4xx_hal_dma_ex.c **** 
 2477              		.loc 1 200 5 discriminator 157 view .LVU640
 2478 0e5e 02F58062 		add	r2, r2, #1024
 2479 0e62 9342     		cmp	r3, r2
 2480 0e64 2DD0     		beq	.L294
 200:Drivers/STM32F4xx_HAL_Driver/Src/stm32f4xx_hal_dma_ex.c **** 
 2481              		.loc 1 200 5 discriminator 159 view .LVU641
 2482 0e66 A2F58962 		sub	r2, r2, #1096
 2483 0e6a 9342     		cmp	r3, r2
 2484 0e6c 2BD0     		beq	.L295
 200:Drivers/STM32F4xx_HAL_Driver/Src/stm32f4xx_hal_dma_ex.c **** 
 2485              		.loc 1 200 5 discriminator 161 view .LVU642
 2486 0e6e 02F58062 		add	r2, r2, #1024
 2487 0e72 9342     		cmp	r3, r2
 2488 0e74 29D0     		beq	.L296
 200:Drivers/STM32F4xx_HAL_Driver/Src/stm32f4xx_hal_dma_ex.c **** 
 2489              		.loc 1 200 5 discriminator 163 view .LVU643
 2490 0e76 A2F56872 		sub	r2, r2, #928
 2491 0e7a 9342     		cmp	r3, r2
 2492 0e7c 27D0     		beq	.L297
 200:Drivers/STM32F4xx_HAL_Driver/Src/stm32f4xx_hal_dma_ex.c **** 
 2493              		.loc 1 200 5 discriminator 165 view .LVU644
 2494 0e7e 02F58062 		add	r2, r2, #1024
 2495 0e82 9342     		cmp	r3, r2
ARM GAS  /tmp/ccWA14hl.s 			page 61


 2496 0e84 25D0     		beq	.L298
 200:Drivers/STM32F4xx_HAL_Driver/Src/stm32f4xx_hal_dma_ex.c **** 
 2497              		.loc 1 200 5 discriminator 167 view .LVU645
 2498 0e86 A2F58962 		sub	r2, r2, #1096
 2499 0e8a 9342     		cmp	r3, r2
 2500 0e8c 23D0     		beq	.L299
 200:Drivers/STM32F4xx_HAL_Driver/Src/stm32f4xx_hal_dma_ex.c **** 
 2501              		.loc 1 200 5 discriminator 169 view .LVU646
 2502 0e8e 02F58062 		add	r2, r2, #1024
 2503 0e92 9342     		cmp	r3, r2
 2504 0e94 22D0     		beq	.L300
 200:Drivers/STM32F4xx_HAL_Driver/Src/stm32f4xx_hal_dma_ex.c **** 
 2505              		.loc 1 200 5 discriminator 171 view .LVU647
 2506 0e96 A2F56872 		sub	r2, r2, #928
 2507 0e9a 9342     		cmp	r3, r2
 2508 0e9c 21D0     		beq	.L301
 200:Drivers/STM32F4xx_HAL_Driver/Src/stm32f4xx_hal_dma_ex.c **** 
 2509              		.loc 1 200 5 discriminator 173 view .LVU648
 2510 0e9e 02F58062 		add	r2, r2, #1024
 2511 0ea2 9342     		cmp	r3, r2
 2512 0ea4 02D0     		beq	.L326
 200:Drivers/STM32F4xx_HAL_Driver/Src/stm32f4xx_hal_dma_ex.c **** 
 2513              		.loc 1 200 5 discriminator 176 view .LVU649
 2514 0ea6 4FF48003 		mov	r3, #4194304
 2515 0eaa 03E0     		b	.L59
 2516              	.L326:
 200:Drivers/STM32F4xx_HAL_Driver/Src/stm32f4xx_hal_dma_ex.c **** 
 2517              		.loc 1 200 5 discriminator 175 view .LVU650
 2518 0eac 4FF48033 		mov	r3, #65536
 2519 0eb0 00E0     		b	.L59
 2520              	.L291:
 200:Drivers/STM32F4xx_HAL_Driver/Src/stm32f4xx_hal_dma_ex.c **** 
 2521              		.loc 1 200 5 discriminator 154 view .LVU651
 2522 0eb2 0123     		movs	r3, #1
 2523              	.L59:
 200:Drivers/STM32F4xx_HAL_Driver/Src/stm32f4xx_hal_dma_ex.c **** 
 2524              		.loc 1 200 5 discriminator 200 view .LVU652
 2525 0eb4 114A     		ldr	r2, .L337+4
 2526 0eb6 9360     		str	r3, [r2, #8]
 2527 0eb8 E3E6     		b	.L54
 2528              	.L292:
 200:Drivers/STM32F4xx_HAL_Driver/Src/stm32f4xx_hal_dma_ex.c **** 
 2529              		.loc 1 200 5 discriminator 156 view .LVU653
 2530 0eba 0123     		movs	r3, #1
 2531 0ebc FAE7     		b	.L59
 2532              	.L293:
 200:Drivers/STM32F4xx_HAL_Driver/Src/stm32f4xx_hal_dma_ex.c **** 
 2533              		.loc 1 200 5 discriminator 158 view .LVU654
 2534 0ebe 0123     		movs	r3, #1
 2535 0ec0 F8E7     		b	.L59
 2536              	.L294:
 200:Drivers/STM32F4xx_HAL_Driver/Src/stm32f4xx_hal_dma_ex.c **** 
 2537              		.loc 1 200 5 discriminator 160 view .LVU655
 2538 0ec2 0123     		movs	r3, #1
 2539 0ec4 F6E7     		b	.L59
 2540              	.L295:
 200:Drivers/STM32F4xx_HAL_Driver/Src/stm32f4xx_hal_dma_ex.c **** 
ARM GAS  /tmp/ccWA14hl.s 			page 62


 2541              		.loc 1 200 5 discriminator 162 view .LVU656
 2542 0ec6 4023     		movs	r3, #64
 2543 0ec8 F4E7     		b	.L59
 2544              	.L296:
 200:Drivers/STM32F4xx_HAL_Driver/Src/stm32f4xx_hal_dma_ex.c **** 
 2545              		.loc 1 200 5 discriminator 164 view .LVU657
 2546 0eca 4023     		movs	r3, #64
 2547 0ecc F2E7     		b	.L59
 2548              	.L297:
 200:Drivers/STM32F4xx_HAL_Driver/Src/stm32f4xx_hal_dma_ex.c **** 
 2549              		.loc 1 200 5 discriminator 166 view .LVU658
 2550 0ece 4023     		movs	r3, #64
 2551 0ed0 F0E7     		b	.L59
 2552              	.L298:
 200:Drivers/STM32F4xx_HAL_Driver/Src/stm32f4xx_hal_dma_ex.c **** 
 2553              		.loc 1 200 5 discriminator 168 view .LVU659
 2554 0ed2 4023     		movs	r3, #64
 2555 0ed4 EEE7     		b	.L59
 2556              	.L299:
 200:Drivers/STM32F4xx_HAL_Driver/Src/stm32f4xx_hal_dma_ex.c **** 
 2557              		.loc 1 200 5 discriminator 170 view .LVU660
 2558 0ed6 4FF48033 		mov	r3, #65536
 2559 0eda EBE7     		b	.L59
 2560              	.L300:
 200:Drivers/STM32F4xx_HAL_Driver/Src/stm32f4xx_hal_dma_ex.c **** 
 2561              		.loc 1 200 5 discriminator 172 view .LVU661
 2562 0edc 4FF48033 		mov	r3, #65536
 2563 0ee0 E8E7     		b	.L59
 2564              	.L301:
 200:Drivers/STM32F4xx_HAL_Driver/Src/stm32f4xx_hal_dma_ex.c **** 
 2565              		.loc 1 200 5 discriminator 174 view .LVU662
 2566 0ee2 4FF48033 		mov	r3, #65536
 2567 0ee6 E5E7     		b	.L59
 2568              	.L323:
 206:Drivers/STM32F4xx_HAL_Driver/Src/stm32f4xx_hal_dma_ex.c ****     {
 2569              		.loc 1 206 53 discriminator 1 view .LVU663
 2570 0ee8 A36C     		ldr	r3, [r4, #72]
 206:Drivers/STM32F4xx_HAL_Driver/Src/stm32f4xx_hal_dma_ex.c ****     {
 2571              		.loc 1 206 45 discriminator 1 view .LVU664
 2572 0eea 002B     		cmp	r3, #0
 2573 0eec 7FF4D7AE 		bne	.L60
 2574 0ef0 DAE6     		b	.L61
 2575              	.LVL40:
 2576              	.L62:
 176:Drivers/STM32F4xx_HAL_Driver/Src/stm32f4xx_hal_dma_ex.c ****   
 2577              		.loc 1 176 3 discriminator 1 view .LVU665
 2578 0ef2 0220     		movs	r0, #2
 2579 0ef4 FFF7A9B8 		b	.L16
 2580              	.L338:
 2581              		.align	2
 2582              	.L337:
 2583 0ef8 10600240 		.word	1073897488
 2584 0efc 00600240 		.word	1073897472
 2585              		.cfi_endproc
 2586              	.LFE135:
 2588              		.section	.text.HAL_DMAEx_ChangeMemory,"ax",%progbits
 2589              		.align	1
ARM GAS  /tmp/ccWA14hl.s 			page 63


 2590              		.global	HAL_DMAEx_ChangeMemory
 2591              		.syntax unified
 2592              		.thumb
 2593              		.thumb_func
 2595              	HAL_DMAEx_ChangeMemory:
 2596              	.LVL41:
 2597              	.LFB136:
 240:Drivers/STM32F4xx_HAL_Driver/Src/stm32f4xx_hal_dma_ex.c ****   if(memory == MEMORY0)
 2598              		.loc 1 240 1 is_stmt 1 view -0
 2599              		.cfi_startproc
 2600              		@ args = 0, pretend = 0, frame = 0
 2601              		@ frame_needed = 0, uses_anonymous_args = 0
 2602              		@ link register save eliminated.
 241:Drivers/STM32F4xx_HAL_Driver/Src/stm32f4xx_hal_dma_ex.c ****   {
 2603              		.loc 1 241 3 view .LVU667
 241:Drivers/STM32F4xx_HAL_Driver/Src/stm32f4xx_hal_dma_ex.c ****   {
 2604              		.loc 1 241 5 is_stmt 0 view .LVU668
 2605 0000 1AB9     		cbnz	r2, .L340
 244:Drivers/STM32F4xx_HAL_Driver/Src/stm32f4xx_hal_dma_ex.c ****   }
 2606              		.loc 1 244 5 is_stmt 1 view .LVU669
 244:Drivers/STM32F4xx_HAL_Driver/Src/stm32f4xx_hal_dma_ex.c ****   }
 2607              		.loc 1 244 9 is_stmt 0 view .LVU670
 2608 0002 0368     		ldr	r3, [r0]
 244:Drivers/STM32F4xx_HAL_Driver/Src/stm32f4xx_hal_dma_ex.c ****   }
 2609              		.loc 1 244 26 view .LVU671
 2610 0004 D960     		str	r1, [r3, #12]
 2611              	.L341:
 252:Drivers/STM32F4xx_HAL_Driver/Src/stm32f4xx_hal_dma_ex.c **** }
 2612              		.loc 1 252 3 is_stmt 1 view .LVU672
 253:Drivers/STM32F4xx_HAL_Driver/Src/stm32f4xx_hal_dma_ex.c **** 
 2613              		.loc 1 253 1 is_stmt 0 view .LVU673
 2614 0006 0020     		movs	r0, #0
 2615              	.LVL42:
 253:Drivers/STM32F4xx_HAL_Driver/Src/stm32f4xx_hal_dma_ex.c **** 
 2616              		.loc 1 253 1 view .LVU674
 2617 0008 7047     		bx	lr
 2618              	.LVL43:
 2619              	.L340:
 249:Drivers/STM32F4xx_HAL_Driver/Src/stm32f4xx_hal_dma_ex.c ****   }
 2620              		.loc 1 249 5 is_stmt 1 view .LVU675
 249:Drivers/STM32F4xx_HAL_Driver/Src/stm32f4xx_hal_dma_ex.c ****   }
 2621              		.loc 1 249 9 is_stmt 0 view .LVU676
 2622 000a 0368     		ldr	r3, [r0]
 249:Drivers/STM32F4xx_HAL_Driver/Src/stm32f4xx_hal_dma_ex.c ****   }
 2623              		.loc 1 249 26 view .LVU677
 2624 000c 1961     		str	r1, [r3, #16]
 2625 000e FAE7     		b	.L341
 2626              		.cfi_endproc
 2627              	.LFE136:
 2629              		.text
 2630              	.Letext0:
 2631              		.file 2 "/usr/arm-none-eabi/include/machine/_default_types.h"
 2632              		.file 3 "/usr/arm-none-eabi/include/sys/_stdint.h"
 2633              		.file 4 "Drivers/CMSIS/Device/ST/STM32F4xx/Include/stm32f411xe.h"
 2634              		.file 5 "Drivers/STM32F4xx_HAL_Driver/Inc/stm32f4xx_hal_def.h"
 2635              		.file 6 "Drivers/STM32F4xx_HAL_Driver/Inc/stm32f4xx_hal_dma.h"
 2636              		.file 7 "Drivers/STM32F4xx_HAL_Driver/Inc/stm32f4xx_hal_dma_ex.h"
ARM GAS  /tmp/ccWA14hl.s 			page 64


ARM GAS  /tmp/ccWA14hl.s 			page 65

