ARM GAS  /tmp/ccPnxV0V.s 			page 1


   1              		.cpu cortex-m4
   2              		.arch armv7e-m
   3              		.fpu fpv4-sp-d16
   4              		.eabi_attribute 27, 1
   5              		.eabi_attribute 28, 1
   6              		.eabi_attribute 20, 1
   7              		.eabi_attribute 21, 1
   8              		.eabi_attribute 23, 3
   9              		.eabi_attribute 24, 1
  10              		.eabi_attribute 25, 1
  11              		.eabi_attribute 26, 1
  12              		.eabi_attribute 30, 1
  13              		.eabi_attribute 34, 1
  14              		.eabi_attribute 18, 4
  15              		.file	"wifi.c"
  16              		.text
  17              	.Ltext0:
  18              		.cfi_sections	.debug_frame
  19              		.file 1 "Core/Src/wifi.c"
  20              		.section	.rodata.send_command.str1.4,"aMS",%progbits,1
  21              		.align	2
  22              	.LC0:
  23 0000 4F4B00   		.ascii	"OK\000"
  24              		.section	.text.send_command,"ax",%progbits
  25              		.align	1
  26              		.global	send_command
  27              		.syntax unified
  28              		.thumb
  29              		.thumb_func
  31              	send_command:
  32              	.LVL0:
  33              	.LFB137:
   1:Core/Src/wifi.c **** #include <stdio.h>
   2:Core/Src/wifi.c **** #include <stdlib.h>
   3:Core/Src/wifi.c **** #include <string.h>
   4:Core/Src/wifi.c **** #include <stdint.h>
   5:Core/Src/wifi.c **** #include "stm32f4xx_hal.h"
   6:Core/Src/wifi.c **** #include "main.h"
   7:Core/Src/wifi.c **** #include "defines.h"
   8:Core/Src/wifi.c **** 
   9:Core/Src/wifi.c **** 
  10:Core/Src/wifi.c **** int send_command(UART_HandleTypeDef *uart, uint8_t * command){
  34              		.loc 1 10 62 view -0
  35              		.cfi_startproc
  36              		@ args = 0, pretend = 0, frame = 0
  37              		@ frame_needed = 0, uses_anonymous_args = 0
  38              		.loc 1 10 62 is_stmt 0 view .LVU1
  39 0000 38B5     		push	{r3, r4, r5, lr}
  40              	.LCFI0:
  41              		.cfi_def_cfa_offset 16
  42              		.cfi_offset 3, -16
  43              		.cfi_offset 4, -12
  44              		.cfi_offset 5, -8
  45              		.cfi_offset 14, -4
  46 0002 0446     		mov	r4, r0
  11:Core/Src/wifi.c ****     //Send command
  12:Core/Src/wifi.c ****     HAL_UART_Transmit(uart, command, sizeof(command), 10);
ARM GAS  /tmp/ccPnxV0V.s 			page 2


  47              		.loc 1 12 5 is_stmt 1 view .LVU2
  48 0004 0A23     		movs	r3, #10
  49 0006 0422     		movs	r2, #4
  50 0008 FFF7FEFF 		bl	HAL_UART_Transmit
  51              	.LVL1:
  13:Core/Src/wifi.c **** 
  14:Core/Src/wifi.c ****     //Receive command
  15:Core/Src/wifi.c ****     HAL_UART_Receive(uart, rx_buff, sizeof(rx_buff), 10);
  52              		.loc 1 15 5 view .LVU3
  53 000c 074D     		ldr	r5, .L5
  54 000e 0A23     		movs	r3, #10
  55 0010 5022     		movs	r2, #80
  56 0012 2946     		mov	r1, r5
  57 0014 2046     		mov	r0, r4
  58 0016 FFF7FEFF 		bl	HAL_UART_Receive
  59              	.LVL2:
  16:Core/Src/wifi.c ****     //sprintf(buff, "AT h: %d", at_h);
  17:Core/Src/wifi.c ****     //HAL_UART_Transmit(uart2, "MINIMETEO\n\r", 11, 10);
  18:Core/Src/wifi.c ****     //HAL_UART_Transmit(uart2, (uint8_t*) rx_buff, 20, 10);
  19:Core/Src/wifi.c ****     
  20:Core/Src/wifi.c ****     if(strstr(rx_buff, "OK") == NULL)
  60              		.loc 1 20 5 view .LVU4
  61              		.loc 1 20 8 is_stmt 0 view .LVU5
  62 001a 0549     		ldr	r1, .L5+4
  63 001c 2846     		mov	r0, r5
  64 001e FFF7FEFF 		bl	strstr
  65              	.LVL3:
  66              		.loc 1 20 7 view .LVU6
  67 0022 08B1     		cbz	r0, .L3
  21:Core/Src/wifi.c ****         return 1;
  22:Core/Src/wifi.c ****     
  23:Core/Src/wifi.c ****     return 0;
  68              		.loc 1 23 12 view .LVU7
  69 0024 0020     		movs	r0, #0
  70              	.L1:
  24:Core/Src/wifi.c **** }
  71              		.loc 1 24 1 view .LVU8
  72 0026 38BD     		pop	{r3, r4, r5, pc}
  73              	.LVL4:
  74              	.L3:
  21:Core/Src/wifi.c ****         return 1;
  75              		.loc 1 21 16 view .LVU9
  76 0028 0120     		movs	r0, #1
  77 002a FCE7     		b	.L1
  78              	.L6:
  79              		.align	2
  80              	.L5:
  81 002c 00000000 		.word	rx_buff
  82 0030 00000000 		.word	.LC0
  83              		.cfi_endproc
  84              	.LFE137:
  86              		.section	.text.AT_hello,"ax",%progbits
  87              		.align	1
  88              		.global	AT_hello
  89              		.syntax unified
  90              		.thumb
  91              		.thumb_func
ARM GAS  /tmp/ccPnxV0V.s 			page 3


  93              	AT_hello:
  94              	.LVL5:
  95              	.LFB138:
  25:Core/Src/wifi.c **** 
  26:Core/Src/wifi.c **** 
  27:Core/Src/wifi.c **** 
  28:Core/Src/wifi.c **** int AT_hello(UART_HandleTypeDef *uart){
  96              		.loc 1 28 39 is_stmt 1 view -0
  97              		.cfi_startproc
  98              		@ args = 0, pretend = 0, frame = 0
  99              		@ frame_needed = 0, uses_anonymous_args = 0
 100              		@ link register save eliminated.
  29:Core/Src/wifi.c ****     int r = 0;
 101              		.loc 1 29 5 view .LVU11
  30:Core/Src/wifi.c **** //    r = send_command(uart, (uint8_t *) "ATE0\r\n");
  31:Core/Src/wifi.c **** //    r += send_command(uart, (uint8_t *) "AT\r\n");
  32:Core/Src/wifi.c ****     return r;
 102              		.loc 1 32 5 view .LVU12
  33:Core/Src/wifi.c **** }
 103              		.loc 1 33 1 is_stmt 0 view .LVU13
 104 0000 0020     		movs	r0, #0
 105              	.LVL6:
 106              		.loc 1 33 1 view .LVU14
 107 0002 7047     		bx	lr
 108              		.cfi_endproc
 109              	.LFE138:
 111              		.text
 112              	.Letext0:
 113              		.file 2 "/usr/include/newlib/machine/_default_types.h"
 114              		.file 3 "/usr/include/newlib/sys/_stdint.h"
 115              		.file 4 "Drivers/CMSIS/Device/ST/STM32F4xx/Include/stm32f411xe.h"
 116              		.file 5 "Drivers/STM32F4xx_HAL_Driver/Inc/stm32f4xx_hal_def.h"
 117              		.file 6 "Drivers/STM32F4xx_HAL_Driver/Inc/stm32f4xx_hal_dma.h"
 118              		.file 7 "Drivers/STM32F4xx_HAL_Driver/Inc/stm32f4xx_hal_uart.h"
 119              		.file 8 "/usr/include/newlib/string.h"
 120              		.file 9 "Core/Inc/defines.h"
ARM GAS  /tmp/ccPnxV0V.s 			page 4


DEFINED SYMBOLS
                            *ABS*:00000000 wifi.c
     /tmp/ccPnxV0V.s:21     .rodata.send_command.str1.4:00000000 $d
     /tmp/ccPnxV0V.s:25     .text.send_command:00000000 $t
     /tmp/ccPnxV0V.s:31     .text.send_command:00000000 send_command
     /tmp/ccPnxV0V.s:81     .text.send_command:0000002c $d
     /tmp/ccPnxV0V.s:87     .text.AT_hello:00000000 $t
     /tmp/ccPnxV0V.s:93     .text.AT_hello:00000000 AT_hello

UNDEFINED SYMBOLS
HAL_UART_Transmit
HAL_UART_Receive
strstr
rx_buff
