ARM GAS  /tmp/ccSYOF9I.s 			page 1


   1              		.cpu cortex-m4
   2              		.arch armv7e-m
   3              		.fpu fpv4-sp-d16
   4              		.eabi_attribute 27, 1
   5              		.eabi_attribute 28, 1
   6              		.eabi_attribute 20, 1
   7              		.eabi_attribute 21, 1
   8              		.eabi_attribute 23, 3
   9              		.eabi_attribute 24, 1
  10              		.eabi_attribute 25, 1
  11              		.eabi_attribute 26, 1
  12              		.eabi_attribute 30, 1
  13              		.eabi_attribute 34, 1
  14              		.eabi_attribute 18, 4
  15              		.file	"wifi.c"
  16              		.text
  17              	.Ltext0:
  18              		.cfi_sections	.debug_frame
  19              		.file 1 "Core/Src/wifi.c"
  20              		.section	.rodata.send_command.str1.4,"aMS",%progbits,1
  21              		.align	2
  22              	.LC0:
  23 0000 4F4B00   		.ascii	"OK\000"
  24              		.section	.text.send_command,"ax",%progbits
  25              		.align	1
  26              		.global	send_command
  27              		.syntax unified
  28              		.thumb
  29              		.thumb_func
  31              	send_command:
  32              	.LVL0:
  33              	.LFB137:
   1:Core/Src/wifi.c **** #include <stdio.h>
   2:Core/Src/wifi.c **** #include <stdlib.h>
   3:Core/Src/wifi.c **** #include <string.h>
   4:Core/Src/wifi.c **** #include <stdint.h>
   5:Core/Src/wifi.c **** #include "stm32f4xx_hal.h"
   6:Core/Src/wifi.c **** 
   7:Core/Src/wifi.c **** 
   8:Core/Src/wifi.c **** int send_command(UART_HandleTypeDef *uart, uint8_t * command){
  34              		.loc 1 8 62 view -0
  35              		.cfi_startproc
  36              		@ args = 0, pretend = 0, frame = 16
  37              		@ frame_needed = 0, uses_anonymous_args = 0
  38              		.loc 1 8 62 is_stmt 0 view .LVU1
  39 0000 10B5     		push	{r4, lr}
  40              	.LCFI0:
  41              		.cfi_def_cfa_offset 8
  42              		.cfi_offset 4, -8
  43              		.cfi_offset 14, -4
  44 0002 84B0     		sub	sp, sp, #16
  45              	.LCFI1:
  46              		.cfi_def_cfa_offset 24
  47 0004 0446     		mov	r4, r0
   9:Core/Src/wifi.c ****     char ack [10] = "";
  48              		.loc 1 9 5 is_stmt 1 view .LVU2
  49              		.loc 1 9 10 is_stmt 0 view .LVU3
ARM GAS  /tmp/ccSYOF9I.s 			page 2


  50 0006 0023     		movs	r3, #0
  51 0008 0193     		str	r3, [sp, #4]
  52 000a 0293     		str	r3, [sp, #8]
  53 000c ADF80C30 		strh	r3, [sp, #12]	@ movhi
  10:Core/Src/wifi.c **** 
  11:Core/Src/wifi.c ****     //Send command
  12:Core/Src/wifi.c ****     HAL_UART_Transmit(uart, command, sizeof(command), 10);
  54              		.loc 1 12 5 is_stmt 1 view .LVU4
  55 0010 0A23     		movs	r3, #10
  56 0012 0422     		movs	r2, #4
  57 0014 FFF7FEFF 		bl	HAL_UART_Transmit
  58              	.LVL1:
  13:Core/Src/wifi.c **** 
  14:Core/Src/wifi.c ****     //Receive command
  15:Core/Src/wifi.c ****     HAL_UART_Receive(uart, ack, sizeof(ack), 10);
  59              		.loc 1 15 5 view .LVU5
  60 0018 0A23     		movs	r3, #10
  61 001a 1A46     		mov	r2, r3
  62 001c 01A9     		add	r1, sp, #4
  63 001e 2046     		mov	r0, r4
  64 0020 FFF7FEFF 		bl	HAL_UART_Receive
  65              	.LVL2:
  16:Core/Src/wifi.c **** 
  17:Core/Src/wifi.c ****     if(strstr(ack, "OK") == NULL)
  66              		.loc 1 17 5 view .LVU6
  67              		.loc 1 17 8 is_stmt 0 view .LVU7
  68 0024 0449     		ldr	r1, .L5
  69 0026 01A8     		add	r0, sp, #4
  70 0028 FFF7FEFF 		bl	strstr
  71              	.LVL3:
  72              		.loc 1 17 7 view .LVU8
  73 002c 10B1     		cbz	r0, .L3
  18:Core/Src/wifi.c ****         return 1;
  19:Core/Src/wifi.c ****     
  20:Core/Src/wifi.c ****     return 0;
  74              		.loc 1 20 12 view .LVU9
  75 002e 0020     		movs	r0, #0
  76              	.L1:
  21:Core/Src/wifi.c **** }
  77              		.loc 1 21 1 view .LVU10
  78 0030 04B0     		add	sp, sp, #16
  79              	.LCFI2:
  80              		.cfi_remember_state
  81              		.cfi_def_cfa_offset 8
  82              		@ sp needed
  83 0032 10BD     		pop	{r4, pc}
  84              	.LVL4:
  85              	.L3:
  86              	.LCFI3:
  87              		.cfi_restore_state
  18:Core/Src/wifi.c ****         return 1;
  88              		.loc 1 18 16 view .LVU11
  89 0034 0120     		movs	r0, #1
  90 0036 FBE7     		b	.L1
  91              	.L6:
  92              		.align	2
  93              	.L5:
ARM GAS  /tmp/ccSYOF9I.s 			page 3


  94 0038 00000000 		.word	.LC0
  95              		.cfi_endproc
  96              	.LFE137:
  98              		.section	.rodata.AT_hello.str1.4,"aMS",%progbits,1
  99              		.align	2
 100              	.LC1:
 101 0000 41544530 		.ascii	"ATE0\000"
 101      00
 102 0005 000000   		.align	2
 103              	.LC2:
 104 0008 415400   		.ascii	"AT\000"
 105              		.section	.text.AT_hello,"ax",%progbits
 106              		.align	1
 107              		.global	AT_hello
 108              		.syntax unified
 109              		.thumb
 110              		.thumb_func
 112              	AT_hello:
 113              	.LFB138:
  22:Core/Src/wifi.c **** 
  23:Core/Src/wifi.c **** 
  24:Core/Src/wifi.c **** 
  25:Core/Src/wifi.c **** int AT_hello(){
 114              		.loc 1 25 15 is_stmt 1 view -0
 115              		.cfi_startproc
 116              		@ args = 0, pretend = 0, frame = 0
 117              		@ frame_needed = 0, uses_anonymous_args = 0
 118 0000 38B5     		push	{r3, r4, r5, lr}
 119              	.LCFI4:
 120              		.cfi_def_cfa_offset 16
 121              		.cfi_offset 3, -16
 122              		.cfi_offset 4, -12
 123              		.cfi_offset 5, -8
 124              		.cfi_offset 14, -4
  26:Core/Src/wifi.c ****     int r = 0;
 125              		.loc 1 26 5 view .LVU13
 126              	.LVL5:
  27:Core/Src/wifi.c ****     r = send_command("ATE0", "OK");
 127              		.loc 1 27 5 view .LVU14
 128              		.loc 1 27 9 is_stmt 0 view .LVU15
 129 0002 064D     		ldr	r5, .L9
 130 0004 2946     		mov	r1, r5
 131 0006 0648     		ldr	r0, .L9+4
 132 0008 FFF7FEFF 		bl	send_command
 133              	.LVL6:
 134 000c 0446     		mov	r4, r0
 135              	.LVL7:
  28:Core/Src/wifi.c ****     r += send_command("AT", "OK");
 136              		.loc 1 28 5 is_stmt 1 view .LVU16
 137              		.loc 1 28 10 is_stmt 0 view .LVU17
 138 000e 2946     		mov	r1, r5
 139 0010 0448     		ldr	r0, .L9+8
 140              	.LVL8:
 141              		.loc 1 28 10 view .LVU18
 142 0012 FFF7FEFF 		bl	send_command
 143              	.LVL9:
  29:Core/Src/wifi.c ****     return r;
ARM GAS  /tmp/ccSYOF9I.s 			page 4


 144              		.loc 1 29 5 is_stmt 1 view .LVU19
  30:Core/Src/wifi.c **** }
 145              		.loc 1 30 1 is_stmt 0 view .LVU20
 146 0016 2044     		add	r0, r0, r4
 147              	.LVL10:
 148              		.loc 1 30 1 view .LVU21
 149 0018 38BD     		pop	{r3, r4, r5, pc}
 150              	.L10:
 151 001a 00BF     		.align	2
 152              	.L9:
 153 001c 00000000 		.word	.LC0
 154 0020 00000000 		.word	.LC1
 155 0024 08000000 		.word	.LC2
 156              		.cfi_endproc
 157              	.LFE138:
 159              		.text
 160              	.Letext0:
 161              		.file 2 "/usr/include/newlib/machine/_default_types.h"
 162              		.file 3 "/usr/include/newlib/sys/_stdint.h"
 163              		.file 4 "Drivers/CMSIS/Device/ST/STM32F4xx/Include/stm32f411xe.h"
 164              		.file 5 "Drivers/STM32F4xx_HAL_Driver/Inc/stm32f4xx_hal_def.h"
 165              		.file 6 "Drivers/STM32F4xx_HAL_Driver/Inc/stm32f4xx_hal_dma.h"
 166              		.file 7 "Drivers/STM32F4xx_HAL_Driver/Inc/stm32f4xx_hal_uart.h"
 167              		.file 8 "/usr/include/newlib/string.h"
ARM GAS  /tmp/ccSYOF9I.s 			page 5


DEFINED SYMBOLS
                            *ABS*:00000000 wifi.c
     /tmp/ccSYOF9I.s:21     .rodata.send_command.str1.4:00000000 $d
     /tmp/ccSYOF9I.s:25     .text.send_command:00000000 $t
     /tmp/ccSYOF9I.s:31     .text.send_command:00000000 send_command
     /tmp/ccSYOF9I.s:94     .text.send_command:00000038 $d
     /tmp/ccSYOF9I.s:99     .rodata.AT_hello.str1.4:00000000 $d
     /tmp/ccSYOF9I.s:106    .text.AT_hello:00000000 $t
     /tmp/ccSYOF9I.s:112    .text.AT_hello:00000000 AT_hello
     /tmp/ccSYOF9I.s:153    .text.AT_hello:0000001c $d

UNDEFINED SYMBOLS
HAL_UART_Transmit
HAL_UART_Receive
strstr
